BDA:0000:0400   00              ??          00h                                     
BDA:0000:0401   00              ??          00h                                     
BDA:0000:0402   00              ??          00h                                     
BDA:0000:0403   00              ??          00h                                     
BDA:0000:0404   00              ??          00h                                     
BDA:0000:0405   00              ??          00h                                     
BDA:0000:0406   00              ??          00h                                     
BDA:0000:0407   00              ??          00h                                     
BDA:0000:0408   00              ??          00h                                     
BDA:0000:0409   00              ??          00h                                     
BDA:0000:040a   00              ??          00h                                     
BDA:0000:040b   00              ??          00h                                     
BDA:0000:040c   00              ??          00h                                     
BDA:0000:040d   00              ??          00h                                     
BDA:0000:040e   00              ??          00h                                     
BDA:0000:040f   00              ??          00h                                     
BDA:0000:0410   00              ??          00h                                     
BDA:0000:0411   00              ??          00h                                     
BDA:0000:0412   00              ??          00h                                     
BDA:0000:0413   00              ??          00h                                     
BDA:0000:0414   00              ??          00h                                     
BDA:0000:0415   00              ??          00h                                     
BDA:0000:0416   00              ??          00h                                     
BDA:0000:0417   00              ??          00h                                     
BDA:0000:0418   00              ??          00h                                     
BDA:0000:0419   00              ??          00h                                     
BDA:0000:041a   00              ??          00h                                     
BDA:0000:041b   00              ??          00h                                     
BDA:0000:041c   00              ??          00h                                     
BDA:0000:041d   00              ??          00h                                     
BDA:0000:041e   00              ??          00h                                     
BDA:0000:041f   00              ??          00h                                     
BDA:0000:0420   00              ??          00h                                     
BDA:0000:0421   00              ??          00h                                     
BDA:0000:0422   00              ??          00h                                     
BDA:0000:0423   00              ??          00h                                     
BDA:0000:0424   00              ??          00h                                     
BDA:0000:0425   00              ??          00h                                     
BDA:0000:0426   00              ??          00h                                     
BDA:0000:0427   00              ??          00h                                     
BDA:0000:0428   00              ??          00h                                     
BDA:0000:0429   00              ??          00h                                     
BDA:0000:042a   00              ??          00h                                     
BDA:0000:042b   00              ??          00h                                     
BDA:0000:042c   00              ??          00h                                     
BDA:0000:042d   00              ??          00h                                     
BDA:0000:042e   00              ??          00h                                     
BDA:0000:042f   00              ??          00h                                     
BDA:0000:0430   00              ??          00h                                     
BDA:0000:0431   00              ??          00h                                     
BDA:0000:0432   00              ??          00h                                     
BDA:0000:0433   00              ??          00h                                     
BDA:0000:0434   00              ??          00h                                     
BDA:0000:0435   00              ??          00h                                     
BDA:0000:0436   00              ??          00h                                     
BDA:0000:0437   00              ??          00h                                     
BDA:0000:0438   00              ??          00h                                     
BDA:0000:0439   00              ??          00h                                     
BDA:0000:043a   00              ??          00h                                     
BDA:0000:043b   00              ??          00h                                     
BDA:0000:043c   00              ??          00h                                     
BDA:0000:043d   00              ??          00h                                     
BDA:0000:043e   00              ??          00h                                     
BDA:0000:043f   00              ??          00h                                     
BDA:0000:0440   00              ??          00h                                     
BDA:0000:0441   00              ??          00h                                     
                            fd_cmd_opcode:                ;XREF[11,0]:  c800:00aa,c800:027f,c800:02a7,c800:031e
                                                          ;             c800:03a2,c800:03c7,c800:043f,c800:052d
                                                          ;             c800:0865,c800:0889,c800:0969
BDA:0000:0442   00              ??          00h                                     
                            fd_cmd_drive_head:            ;XREF[6,0]:   c800:0287,c800:028c,c800:02ac,c800:02b1
                                                          ;             c800:0325,c800:039c
BDA:0000:0443   00              ??          00h                                     
                            fd_cmd_cylmsb_sector:         ;XREF[4,0]:   c800:0292,c800:02b5,c800:032c,c800:03ab
BDA:0000:0444   00              ??          00h                                     
                            fd_cmd_cyllsb:                ;XREF[5,0]:   c800:0296,c800:02b9,c800:0330,c800:03af
                                                          ;             c800:0449
BDA:0000:0445   00              ??          00h                                     
                            fd_blockcnt_or_intlve:        ;XREF[3,0]:   c800:02bd,c800:03a6,c800:044d
BDA:0000:0446   00              ??          00h                                     
                            fd_cmd_flags:                 ;XREF[4,0]:   c800:03b3,c800:0551,c800:055d,c800:0815
BDA:0000:0447   00              ??          00h                                     
                            fd_448:                       
BDA:0000:0448   00              ??          00h                                     
BDA:0000:0449   00              ??          00h                                     
BDA:0000:044a   00              ??          00h                                     
BDA:0000:044b   00              ??          00h                                     
BDA:0000:044c   00              ??          00h                                     
BDA:0000:044d   00              ??          00h                                     
BDA:0000:044e   00              ??          00h                                     
BDA:0000:044f   00              ??          00h                                     
BDA:0000:0450   00              ??          00h                                     
BDA:0000:0451   00              ??          00h                                     
BDA:0000:0452   00              ??          00h                                     
BDA:0000:0453   00              ??          00h                                     
BDA:0000:0454   00              ??          00h                                     
BDA:0000:0455   00              ??          00h                                     
BDA:0000:0456   00              ??          00h                                     
BDA:0000:0457   00              ??          00h                                     
BDA:0000:0458   00              ??          00h                                     
BDA:0000:0459   00              ??          00h                                     
BDA:0000:045a   00              ??          00h                                     
BDA:0000:045b   00              ??          00h                                     
BDA:0000:045c   00              ??          00h                                     
BDA:0000:045d   00              ??          00h                                     
BDA:0000:045e   00              ??          00h                                     
BDA:0000:045f   00              ??          00h                                     
BDA:0000:0460   00              ??          00h                                     
BDA:0000:0461   00              ??          00h                                     
BDA:0000:0462   00              ??          00h                                     
BDA:0000:0463   00              ??          00h                                     
BDA:0000:0464   00              ??          00h                                     
BDA:0000:0465   00              ??          00h                                     
BDA:0000:0466   00              ??          00h                                     
BDA:0000:0467   00              ??          00h                                     
BDA:0000:0468   00              ??          00h                                     
BDA:0000:0469   00              ??          00h                                     
BDA:0000:046a   00              ??          00h                                     
BDA:0000:046b   00              ??          00h                                     
                            timer_ticks:                  ;XREF[6,0]:   c800:06a6,c800:06b7,c800:06be,c800:06e0
                                                          ;             c800:06e4,c800:06ea
BDA:0000:046c   00              ??          00h                                     
BDA:0000:046d   00              ??          00h                                     
BDA:0000:046e   00              ??          00h                                     
BDA:0000:046f   00              ??          00h                                     
BDA:0000:0470   00              ??          00h                                     
BDA:0000:0471   00              ??          00h                                     
BDA:0000:0472   00              ??          00h                                     
BDA:0000:0473   00              ??          00h                                     
                            fd_last_op_status:            ;XREF[13,0]:  c800:019d,c800:01fd,c800:020d,c800:026a
                                                          ;             c800:026d,c800:037d,c800:0547,c800:0690
                                                          ;             c800:0881,c800:08c1,c800:0959,c800:097f
                                                          ;             c800:09e6
BDA:0000:0474   00              ??          00h                                     
                            fd_num_drives:                ;XREF[8,0]:   c800:0068,c800:00c0,c800:00c7,c800:00da
                                                          ;             c800:00fc,c800:017d,c800:0365,c800:0a1d
BDA:0000:0475   00              ??          00h                                     
                            fd_control_byte:              ;XREF[3,0]:   c800:0556,c800:080e,c800:0ae2
BDA:0000:0476   00              ??          00h                                     
                            fd_io_port_offset:            
BDA:0000:0477   00              ??          00h                                     
BDA:0000:0478   00              ??          00h                                     
BDA:0000:0479   00              ??          00h                                     
BDA:0000:047a   00              ??          00h                                     
BDA:0000:047b   00              ??          00h                                     
BDA:0000:047c   00              ??          00h                                     
BDA:0000:047d   00              ??          00h                                     
BDA:0000:047e   00              ??          00h                                     
BDA:0000:047f   00              ??          00h                                     
BDA:0000:0480   00              ??          00h                                     
BDA:0000:0481   00              ??          00h                                     
BDA:0000:0482   00              ??          00h                                     
BDA:0000:0483   00              ??          00h                                     
BDA:0000:0484   00              ??          00h                                     
BDA:0000:0485   00              ??          00h                                     
BDA:0000:0486   00              ??          00h                                     
BDA:0000:0487   00              ??          00h                                     
BDA:0000:0488   00              ??          00h                                     
BDA:0000:0489   00              ??          00h                                     
BDA:0000:048a   00              ??          00h                                     
BDA:0000:048b   00              ??          00h                                     
BDA:0000:048c   00              ??          00h                                     
BDA:0000:048d   00              ??          00h                                     
BDA:0000:048e   00              ??          00h                                     
BDA:0000:048f   00              ??          00h                                     
BDA:0000:0490   00              ??          00h                                     
BDA:0000:0491   00              ??          00h                                     
BDA:0000:0492   00              ??          00h                                     
BDA:0000:0493   00              ??          00h                                     
BDA:0000:0494   00              ??          00h                                     
BDA:0000:0495   00              ??          00h                                     
BDA:0000:0496   00              ??          00h                                     
BDA:0000:0497   00              ??          00h                                     
BDA:0000:0498   00              ??          00h                                     
BDA:0000:0499   00              ??          00h                                     
BDA:0000:049a   00              ??          00h                                     
BDA:0000:049b   00              ??          00h                                     
BDA:0000:049c   00              ??          00h                                     
BDA:0000:049d   00              ??          00h                                     
BDA:0000:049e   00              ??          00h                                     
BDA:0000:049f   00              ??          00h                                     
BDA:0000:04a0   00              ??          00h                                     
BDA:0000:04a1   00              ??          00h                                     
BDA:0000:04a2   00              ??          00h                                     
BDA:0000:04a3   00              ??          00h                                     
BDA:0000:04a4   00              ??          00h                                     
BDA:0000:04a5   00              ??          00h                                     
BDA:0000:04a6   00              ??          00h                                     
BDA:0000:04a7   00              ??          00h                                     
BDA:0000:04a8   00              ??          00h                                     
BDA:0000:04a9   00              ??          00h                                     
BDA:0000:04aa   00              ??          00h                                     
BDA:0000:04ab   00              ??          00h                                     
BDA:0000:04ac   00              ??          00h                                     
BDA:0000:04ad   00              ??          00h                                     
BDA:0000:04ae   00              ??          00h                                     
BDA:0000:04af   00              ??          00h                                     
BDA:0000:04b0   00              ??          00h                                     
BDA:0000:04b1   00              ??          00h                                     
BDA:0000:04b2   00              ??          00h                                     
BDA:0000:04b3   00              ??          00h                                     
BDA:0000:04b4   00              ??          00h                                     
BDA:0000:04b5   00              ??          00h                                     
BDA:0000:04b6   00              ??          00h                                     
BDA:0000:04b7   00              ??          00h                                     
BDA:0000:04b8   00              ??          00h                                     
BDA:0000:04b9   00              ??          00h                                     
BDA:0000:04ba   00              ??          00h                                     
BDA:0000:04bb   00              ??          00h                                     
BDA:0000:04bc   00              ??          00h                                     
BDA:0000:04bd   00              ??          00h                                     
BDA:0000:04be   00              ??          00h                                     
BDA:0000:04bf   00              ??          00h                                     
BDA:0000:04c0   00              ??          00h                                     
BDA:0000:04c1   00              ??          00h                                     
BDA:0000:04c2   00              ??          00h                                     
BDA:0000:04c3   00              ??          00h                                     
BDA:0000:04c4   00              ??          00h                                     
BDA:0000:04c5   00              ??          00h                                     
BDA:0000:04c6   00              ??          00h                                     
BDA:0000:04c7   00              ??          00h                                     
BDA:0000:04c8   00              ??          00h                                     
BDA:0000:04c9   00              ??          00h                                     
BDA:0000:04ca   00              ??          00h                                     
BDA:0000:04cb   00              ??          00h                                     
BDA:0000:04cc   00              ??          00h                                     
BDA:0000:04cd   00              ??          00h                                     
BDA:0000:04ce   00              ??          00h                                     
BDA:0000:04cf   00              ??          00h                                     
BDA:0000:04d0   00              ??          00h                                     
BDA:0000:04d1   00              ??          00h                                     
BDA:0000:04d2   00              ??          00h                                     
BDA:0000:04d3   00              ??          00h                                     
BDA:0000:04d4   00              ??          00h                                     
BDA:0000:04d5   00              ??          00h                                     
BDA:0000:04d6   00              ??          00h                                     
BDA:0000:04d7   00              ??          00h                                     
BDA:0000:04d8   00              ??          00h                                     
BDA:0000:04d9   00              ??          00h                                     
BDA:0000:04da   00              ??          00h                                     
BDA:0000:04db   00              ??          00h                                     
BDA:0000:04dc   00              ??          00h                                     
BDA:0000:04dd   00              ??          00h                                     
BDA:0000:04de   00              ??          00h                                     
BDA:0000:04df   00              ??          00h                                     
BDA:0000:04e0   00              ??          00h                                     
BDA:0000:04e1   00              ??          00h                                     
BDA:0000:04e2   00              ??          00h                                     
BDA:0000:04e3   00              ??          00h                                     
BDA:0000:04e4   00              ??          00h                                     
BDA:0000:04e5   00              ??          00h                                     
BDA:0000:04e6   00              ??          00h                                     
BDA:0000:04e7   00              ??          00h                                     
BDA:0000:04e8   00              ??          00h                                     
BDA:0000:04e9   00              ??          00h                                     
BDA:0000:04ea   00              ??          00h                                     
BDA:0000:04eb   00              ??          00h                                     
BDA:0000:04ec   00              ??          00h                                     
BDA:0000:04ed   00              ??          00h                                     
BDA:0000:04ee   00              ??          00h                                     
BDA:0000:04ef   00              ??          00h                                     
BDA:0000:04f0   00              ??          00h                                     
BDA:0000:04f1   00              ??          00h                                     
BDA:0000:04f2   00              ??          00h                                     
BDA:0000:04f3   00              ??          00h                                     
BDA:0000:04f4   00              ??          00h                                     
BDA:0000:04f5   00              ??          00h                                     
BDA:0000:04f6   00              ??          00h                                     
BDA:0000:04f7   00              ??          00h                                     
BDA:0000:04f8   00              ??          00h                                     
BDA:0000:04f9   00              ??          00h                                     
BDA:0000:04fa   00              ??          00h                                     
BDA:0000:04fb   00              ??          00h                                     
BDA:0000:04fc   00              ??          00h                                     
BDA:0000:04fd   00              ??          00h                                     
BDA:0000:04fe   00              ??          00h                                     
BDA:0000:04ff   00              ??          00h                                     
ROM:c800:0000   55              ??          55h    U                                ;Option ROM has 55 AA as first two bytes
ROM:c800:0001   aa              ??          AAh                                     
ROM:c800:0002   0c              ??          0Ch                                     ;Third byte of option ROM is size of ...
ROM:c800:0003   eb4a            JMP         boot_entry                              
ROM:c800:0005   eb03            JMP         low_level_entry_jump                    
ROM:c800:0007   e9              ??          E9h                                     
ROM:c800:0008   e6              ??          E6h                                     
ROM:c800:0009   07              ??          07h                                     
                            low_level_entry_jump:         ;XREF[2,0]:   Entry Point,c800:0005
ROM:c800:000a   e9e409          JMP         low_level_format_utility                
ROM:c800:000d   00              ??          00h                                     
ROM:c800:000e   00              ??          00h                                     
ROM:c800:000f   89              ??          89h                                     
                            string_boot_message:          ;XREF[1,0]:   c800:0056
ROM:c800:0010   21              ??          21h    !                                
ROM:c800:0011   534541474...    ds          "SEAGATE ST05X BIOS REVISION 2.4\r\n"...
                            boot_entry:                   ;XREF[2,0]:   Entry Point,c800:0003
ROM:c800:004f   55              PUSH        BP                                      
ROM:c800:0050   33c0            XOR         AX,AX                                   
ROM:c800:0052   8ed8            MOV         DS,AX                                   
ROM:c800:0054   0e              PUSH        CS                                      
ROM:c800:0055   07              POP         ES                                      
ROM:c800:0056   be1000          MOV         SI,string_boot_message                  ;= 21h    !
ROM:c800:0059   e81a05          CALL        display_string_with_length              ;undefined display_string_with_length()
ROM:c800:005c   b81300          MOV         AX,0x13                                 ;Approx 1 second
ROM:c800:005f   e86d06          CALL        wait_for_n_ticks                        ;undefined wait_for_n_ticks()
ROM:c800:0062   e83200          CALL        detect_drives                           ;undefined detect_drives()
ROM:c800:0065   e89400          CALL        hook_interrupts_if_drives_present       ;undefined hook_interrupts_if_drives_...
ROM:c800:0068   a07504          MOV         AL,[BDA:fd_num_drives]                  
ROM:c800:006b   bebb0d          MOV         SI,string_no_drives_found               ;= 2Ch    ,
ROM:c800:006e   3c00            CMP         AL,0x0                                  
ROM:c800:0070   741a            JZ          display_number_of_drives                
ROM:c800:0072   50              PUSH        AX                                      
ROM:c800:0073   e81c0d          CALL        write_bel                               ;undefined write_bel()
ROM:c800:0076   b9ffff          MOV         CX,0xffff                               
                            delay_loop:                   ;XREF[1,0]:   c800:007c
ROM:c800:0079   49              DEC         CX                                      
ROM:c800:007a   e302            JCXZ        delay_complete                          
ROM:c800:007c   ebfb            JMP         delay_loop                              
                            delay_complete:               ;XREF[1,0]:   c800:007a
ROM:c800:007e   58              POP         AX                                      
ROM:c800:007f   bee80d          MOV         SI,string_one_drive_found               ;= 2Dh    -
ROM:c800:0082   3c01            CMP         AL,0x1                                  
ROM:c800:0084   7406            JZ          display_number_of_drives                
ROM:c800:0086   be160e          MOV         SI,string_two_drives_found              ;= 2Dh    -
ROM:c800:0089   e8060d          CALL        write_bel                               ;undefined write_bel()
                            display_number_of_drives:     ;XREF[2,0]:   c800:0070,c800:0084
ROM:c800:008c   e8e704          CALL        display_string_with_length              ;undefined display_string_with_length()
ROM:c800:008f   b81300          MOV         AX,0x13                                 ;Approx 1 second
ROM:c800:0092   e83a06          CALL        wait_for_n_ticks                        ;undefined wait_for_n_ticks()
ROM:c800:0095   5d              POP         BP                                      
ROM:c800:0096   cb              RETF                                                 
                            ;************************************************************************************************
                            ;*                                           FUNCTION                                           *
                            ;************************************************************************************************
                            ;undefined detect_drives()
                                                          ;XREF[1,0]:   c800:0062
ROM:c800:0097   ba0000          MOV         DX,0x0                                  ;Select drive 0
ROM:c800:009a   83ec06          SUB         SP,0x6                                  
ROM:c800:009d   8bec            MOV         BP,SP                                   
                            loop:                         ;XREF[1,0]:   c800:00d3
ROM:c800:009f   c746020000      MOV         word ptr [BP + 0x2],0x0                 
ROM:c800:00a4   e88204          CALL        set_interface_paramters                 ;undefined set_interface_paramters()
ROM:c800:00a7   e87504          CALL        write_reset_port                        ;undefined write_reset_port()
ROM:c800:00aa   c606420400      MOV         byte ptr [BDA:fd_cmd_opcode],0x0        ;Test drive ready
ROM:c800:00af   b81d01          MOV         AX,0x11d                                ;Timeout approx 16s
ROM:c800:00b2   0bd2            OR          DX,DX                                   
ROM:c800:00b4   7403            JZ          is_first_drive                          
ROM:c800:00b6   b82600          MOV         AX,0x26                                 ;Shorter timeout of approx 2s
                                                                                    ;Need to have fastest
                                                                                    ;starting drive as drive 0!!!
                            is_first_drive:               ;XREF[1,0]:   c800:00b4
ROM:c800:00b9   e88a07          CALL        see_if_drive_ready                      ;undefined see_if_drive_ready()
ROM:c800:00bc   0ae4            OR          AH,AH                                   
ROM:c800:00be   7515            JNZ         exit                                    
ROM:c800:00c0   fe067504        INC         byte ptr [BDA:fd_num_drives]            
ROM:c800:00c4   e81200          CALL        set_first_drive_params                  ;undefined set_first_drive_params()
ROM:c800:00c7   803e750402      CMP         byte ptr [BDA:fd_num_drives],0x2        
ROM:c800:00cc   7307            JNC         exit                                    ;Already have two drives
ROM:c800:00ce   0bd2            OR          DX,DX                                   
ROM:c800:00d0   7503            JNZ         exit                                    ;Drive just done is not 0
ROM:c800:00d2   42              INC         DX                                      ;Increment drive (DX will = 1)
ROM:c800:00d3   ebca            JMP         loop                                    
                            exit:                         ;XREF[3,0]:   c800:00be,c800:00cc,c800:00d0
ROM:c800:00d5   83c406          ADD         SP,0x6                                  
ROM:c800:00d8   c3              RET                                                  
                            ;************************************************************************************************
                            ;*                                           FUNCTION                                           *
                            ;************************************************************************************************
                            ;undefined set_first_drive_params()
                                                          ;XREF[1,0]:   c800:00c4
ROM:c800:00d9   52              PUSH        DX                                      
ROM:c800:00da   803e750401      CMP         byte ptr [BDA:fd_num_drives],0x1        
ROM:c800:00df   7519            JNZ         zero_or_two_drives                      
ROM:c800:00e1   bb2901          MOV         BX,drive_type_0_params                  ;= 3D4h
ROM:c800:00e4   8b5600          MOV         DX,word ptr [BP + 0x0]                  
ROM:c800:00e7   83c202          ADD         DX,0x2                                  
ROM:c800:00ea   ec              IN          AL,DX                                   ;Read drive configuration
ROM:c800:00eb   2403            AND         AL,0x3                                  
ROM:c800:00ed   b110            MOV         CL,0x10                                 
ROM:c800:00ef   f6e1            MUL         CL                                      
ROM:c800:00f1   03c3            ADD         AX,BX                                   ;AX=0x129+(drive_type)*0x10
ROM:c800:00f3   a30401          MOV         [0x104],AX                              ;Drive 0 fixed disk params
ROM:c800:00f6   8c0e0601        MOV         word ptr [0x106],CS                     
                            zero_or_two_drives:           ;XREF[1,0]:   c800:00df
ROM:c800:00fa   5a              POP         DX                                      
ROM:c800:00fb   c3              RET                                                  
                            ;************************************************************************************************
                            ;*                                           FUNCTION                                           *
                            ;************************************************************************************************
                            ;undefined hook_interrupts_if_drives_present()
                                                          ;XREF[1,0]:   c800:0065
ROM:c800:00fc   803e750400      CMP         byte ptr [BDA:fd_num_drives],0x0        
ROM:c800:0101   7501            JNZ         drives_present                          
ROM:c800:0103   c3              RET                                                  
                            drives_present:               ;XREF[1,0]:   c800:0101
ROM:c800:0104   fa              CLI                                                  
ROM:c800:0105   a14c00          MOV         AX,[0x4c]                               ;Move int 13 handler to int 40
ROM:c800:0108   8b1e4e00        MOV         BX,word ptr [0x4e]                      
ROM:c800:010c   a30001          MOV         [0x100],AX                              
ROM:c800:010f   891e0201        MOV         word ptr [0x102],BX                     
ROM:c800:0113   c7064c006901    MOV         word ptr [0x4c],int_13_handler          ;Take int 13 handler
ROM:c800:0119   8c0e4e00        MOV         word ptr [0x4e],CS                      
ROM:c800:011d   c70664009304    MOV         word ptr [0x64],int_19_handler          ;Take int 19 handler
ROM:c800:0123   8c0e6600        MOV         word ptr [0x66],CS                      
ROM:c800:0127   fb              STI                                                  
ROM:c800:0128   c3              RET                                                  
                            ;42,649,600 bytes
                            ;Params are idential to type 2
                            drive_type_0_params:          ;XREF[1,0]:   c800:00e1
ROM:c800:0129   d403            dw          3D4h                                    ;Cylinders
ROM:c800:012b   05              db          5h                                      ;Heads
ROM:c800:012c   ff              db          FFh                                     ;Reserved
ROM:c800:012d   ff              db          FFh                                     ;Reserved
ROM:c800:012e   ffff            dw          FFFFh                                   ;Precompensation
ROM:c800:0130   0b              db          Bh                                      ;Reserved
ROM:c800:0131   05              db          5h                                      ;Drive control byte
ROM:c800:0132   20b4            dw          B420h                                   ;Reserved
ROM:c800:0134   28              db          28h                                     ;Reserved
ROM:c800:0135   0000            dw          0h                                      ;Landing Zone
ROM:c800:0137   11              db          11h                                     ;Sectors per track
ROM:c800:0138   05              db          5h                                      ;Reserved
                            ;32,901,120 bytes
                            drive_type_1_params:          
ROM:c800:0139   6702            dw          267h                                    ;Cylinders
ROM:c800:013b   06              db          6h                                      ;Heads
ROM:c800:013c   ff              db          FFh                                     ;Reserved
ROM:c800:013d   ff              db          FFh                                     ;Reserved
ROM:c800:013e   ffff            dw          FFFFh                                   ;Precompensation
ROM:c800:0140   0b              db          Bh                                      ;Reserved
ROM:c800:0141   05              db          5h                                      ;Drive control byte
ROM:c800:0142   20b4            dw          B420h                                   ;Reserved
ROM:c800:0144   28              db          28h                                     ;Reserved
ROM:c800:0145   0000            dw          0h                                      ;Landing Zone
ROM:c800:0147   11              db          11h                                     ;Sectors per track
ROM:c800:0148   05              db          5h                                      ;Reserved
                            ;42,649,600 bytes
                            ;ST351 A/X configured for this
                            drive_type_2_params:          
ROM:c800:0149   d403            dw          3D4h                                    ;Cylinders
ROM:c800:014b   05              db          5h                                      ;Heads
ROM:c800:014c   ff              db          FFh                                     ;Reserved
ROM:c800:014d   ff              db          FFh                                     ;Reserved
ROM:c800:014e   ffff            dw          FFFFh                                   ;Precompensation
ROM:c800:0150   0b              db          Bh                                      ;Reserved
ROM:c800:0151   05              db          5h                                      ;Drive control byte
ROM:c800:0152   20b4            dw          B420h                                   ;Reserved
ROM:c800:0154   28              db          28h                                     ;Reserved
ROM:c800:0155   0000            dw          0h                                      ;Landing Zone
ROM:c800:0157   11              db          11h                                     ;Sectors per track
ROM:c800:0158   05              db          5h                                      ;Reserved
                            ;21,411,840 bytes
                            ;ST325 X configured for this
                            drive_type_3_params:          
ROM:c800:0159   6702            dw          267h                                    ;Cylinders
ROM:c800:015b   04              db          4h                                      ;Heads
ROM:c800:015c   ff              db          FFh                                     ;Reserved
ROM:c800:015d   ff              db          FFh                                     ;Reserved
ROM:c800:015e   ffff            dw          FFFFh                                   ;Precompensation
ROM:c800:0160   0b              db          Bh                                      ;Reserved
ROM:c800:0161   05              db          5h                                      ;Drive control byte
ROM:c800:0162   20b4            dw          B420h                                   ;Reserved
ROM:c800:0164   28              db          28h                                     ;Reserved
ROM:c800:0165   0000            dw          0h                                      ;Landing Zone
ROM:c800:0167   11              db          11h                                     ;Sectors per track
ROM:c800:0168   05              db          5h                                      ;Reserved
                            ;************************************************************************************************
                            ;*                                           FUNCTION                                           *
                            ;************************************************************************************************
                            ;undefined int_13_handler()
                                                          ;XREF[1,0]:   c800:0113
ROM:c800:0169   fb              STI                                                  
ROM:c800:016a   f6c280          TEST        DL,0x80                                 
ROM:c800:016d   7505            JNZ         is_fixed_disk                           
ROM:c800:016f   cd40            INT         0x40                                    ;Original IRQ 13 hanlder moved to INT 40
ROM:c800:0171   ca0200          RETF        0x2                                     
                            is_fixed_disk:                ;XREF[1,0]:   c800:016d
ROM:c800:0174   80e27f          AND         DL,0x7f                                 
ROM:c800:0177   06              PUSH        ES                                      
ROM:c800:0178   50              PUSH        AX                                      
ROM:c800:0179   33c0            XOR         AX,AX                                   
ROM:c800:017b   8ec0            MOV         ES,AX                                   
ROM:c800:017d   263a167504      CMP         DL,byte ptr ES:[BDA:fd_num_drives]      
ROM:c800:0182   58              POP         AX                                      
ROM:c800:0183   07              POP         ES                                      
ROM:c800:0184   7221            JC          drive_valid                             
ROM:c800:0186   80ca80          OR          DL,0x80                                 
ROM:c800:0189   80fc08          CMP         AH,0x8                                  ;Is "get drive parameters"?
ROM:c800:018c   b401            MOV         AH,0x1                                  ;invalid function
ROM:c800:018e   7506            JNZ         set_fixed_disk_last_operation_status    
ROM:c800:0190   b407            MOV         AH,0x7                                  ;Drive parameter activity failed
ROM:c800:0192   33c9            XOR         CX,CX                                   
ROM:c800:0194   33d2            XOR         DX,DX                                   
                            set_fixed_disk_last_operati...;XREF[2,0]:   c800:018e,c800:01d2
ROM:c800:0196   06              PUSH        ES                                      
ROM:c800:0197   50              PUSH        AX                                      
ROM:c800:0198   33c0            XOR         AX,AX                                   
ROM:c800:019a   8ec0            MOV         ES,AX                                   
ROM:c800:019c   58              POP         AX                                      
ROM:c800:019d   2688267404      MOV         byte ptr ES:[BDA:fd_last_op_status],AH  
ROM:c800:01a2   07              POP         ES                                      
ROM:c800:01a3   f9              STC                                                  
ROM:c800:01a4   ca0200          RETF        0x2                                     
                            drive_valid:                  ;XREF[1,0]:   c800:0184
ROM:c800:01a7   55              PUSH        BP                                      
ROM:c800:01a8   1e              PUSH        DS                                      
ROM:c800:01a9   06              PUSH        ES                                      
ROM:c800:01aa   57              PUSH        DI                                      
ROM:c800:01ab   56              PUSH        SI                                      
ROM:c800:01ac   50              PUSH        AX                                      
ROM:c800:01ad   53              PUSH        BX                                      
ROM:c800:01ae   51              PUSH        CX                                      
ROM:c800:01af   52              PUSH        DX                                      
ROM:c800:01b0   83ec06          SUB         SP,0x6                                  
ROM:c800:01b3   8bec            MOV         BP,SP                                   
ROM:c800:01b5   80fc55          CMP         AH,0x55                                 
ROM:c800:01b8   751a            JNZ         not_function_55                         
ROM:c800:01ba   8ae0            MOV         AH,AL                                   
ROM:c800:01bc   80c416          ADD         AH,0x16                                 
ROM:c800:01bf   90              NOP                                                  
ROM:c800:01c0   3c01            CMP         AL,0x1                                  
ROM:c800:01c2   90              NOP                                                  
ROM:c800:01c3   90              NOP                                                  
ROM:c800:01c4   7306            JNC         invalid_function_requested              
ROM:c800:01c6   33c0            XOR         AX,AX                                   ;Change fucntion to 0
                                                                                    ;(drive reset)
ROM:c800:01c8   8bf0            MOV         SI,AX                                   
ROM:c800:01ca   eb16            JMP         valid_fucntion                          
                            invalid_function_requested:   ;XREF[2,0]:   c800:01c4,c800:01d8
ROM:c800:01cc   b401            MOV         AH,0x1                                  ;Invalid function requested
ROM:c800:01ce   83c416          ADD         SP,0x16                                 
ROM:c800:01d1   5d              POP         BP                                      
ROM:c800:01d2   ebc2            JMP         set_fixed_disk_last_operation_status    
                            not_function_55:              ;XREF[1,0]:   c800:01b8
ROM:c800:01d4   80fc16          CMP         AH,0x16                                 
ROM:c800:01d7   90              NOP                                                  
ROM:c800:01d8   73f2            JNC         invalid_function_requested              
ROM:c800:01da   8ac4            MOV         AL,AH                                   ;Function is 0-15 or 55
ROM:c800:01dc   b403            MOV         AH,0x3                                  
ROM:c800:01de   f6e4            MUL         AH                                      
ROM:c800:01e0   8bf0            MOV         SI,AX                                   ;SI = function * 3
                            valid_fucntion:               ;XREF[1,0]:   c800:01ca
ROM:c800:01e2   33c0            XOR         AX,AX                                   
ROM:c800:01e4   8ed8            MOV         DS,AX                                   
ROM:c800:01e6   8b460c          MOV         AX,word ptr [BP + 0xc]                  ;Recover original AX from stack
ROM:c800:01e9   2eff941302      CALL        word ptr CS:[SI + int_13_function_table];= 25Eh
ROM:c800:01ee   8b4e08          MOV         CX,word ptr [BP + 0x8]                  
ROM:c800:01f1   8b5606          MOV         DX,word ptr [BP + 0x6]                  
ROM:c800:01f4   8b5e0a          MOV         BX,word ptr [BP + 0xa]                  
ROM:c800:01f7   80ca80          OR          DL,0x80                                 
ROM:c800:01fa   83c40e          ADD         SP,0xe                                  
ROM:c800:01fd   8a267404        MOV         AH,byte ptr [BDA:fd_last_op_status]     
ROM:c800:0201   80fc01          CMP         AH,0x1                                  
ROM:c800:0204   f5              CMC                                                  
                            LAB_c800_0205:                ;XREF[2,0]:   c800:0378,c800:0431
ROM:c800:0205   5e              POP         SI                                      
ROM:c800:0206   5f              POP         DI                                      
ROM:c800:0207   07              POP         ES                                      
ROM:c800:0208   1f              POP         DS                                      
ROM:c800:0209   5d              POP         BP                                      
ROM:c800:020a   ca0200          RETF        0x2                                     
                            ;************************************************************************************************
                            ;*                                           FUNCTION                                           *
                            ;************************************************************************************************
                            ;undefined set_invalid_function_reqested()
                                                          ;XREF[3,0]:   c800:0258,c800:025b,c800:0395
ROM:c800:020d   c606740401      MOV         byte ptr [BDA:fd_last_op_status],0x1    
ROM:c800:0212   c3              RET                                                  
                            int_13_function_table:        ;XREF[1,0]:   c800:01e9
ROM:c800:0213   5e02            dw          int_13_reset_disk_system                ;00
ROM:c800:0215   00              db          0h                                      
ROM:c800:0216   6a02            dw          int_13_get_status_of_last_operation     ;01
ROM:c800:0218   00              db          0h                                      
ROM:c800:0219   d002            dw          int_13_read_sectors                     ;02
ROM:c800:021b   06              db          6h                                      
ROM:c800:021c   cc02            dw          int_13_write_sectors                    ;03
ROM:c800:021e   07              db          7h                                      
ROM:c800:021f   7302            dw          int_13_verify_sectors                   ;04
ROM:c800:0221   00              db          0h                                      
ROM:c800:0222   1103            dw          int_13_format_track                     ;05
ROM:c800:0224   00              db          0h                                      
ROM:c800:0225   1503            dw          int_13_format_track_set_bad_sector_flags;06
ROM:c800:0227   00              db          0h                                      
ROM:c800:0228   1903            dw          int_13_format_drive_starting_at_track   ;07
ROM:c800:022a   04              db          4h                                      
ROM:c800:022b   4903            dw          int_13_read_drive_parameters            ;08
ROM:c800:022d   00              db          0h                                      
ROM:c800:022e   6a02            dw          int_13_get_status_of_last_operation     ;09 (Initialize disk controller)
ROM:c800:0230   00              db          0h                                      
ROM:c800:0231   8603            dw          int_13_read_long_sectors                ;0A
ROM:c800:0233   02              db          2h                                      
ROM:c800:0234   8203            dw          int_13_write_long_sectors               ;0B
ROM:c800:0236   03              db          3h                                      
ROM:c800:0237   a402            dw          int_13_move_drive_head_to_cylinder      ;0C
ROM:c800:0239   00              db          0h                                      
ROM:c800:023a   5e02            dw          int_13_reset_disk_system                ;0D (Reset disk drives)
ROM:c800:023c   00              db          0h                                      
ROM:c800:023d   c203            dw          int_13_controller_read_test             ;0E
ROM:c800:023f   02              db          2h                                      
ROM:c800:0240   d503            dw          int_13_controller_write_test            ;0F
ROM:c800:0242   03              db          3h                                      
ROM:c800:0243   d903            dw          int_13_test_whether_drive_is_ready      ;10
ROM:c800:0245   00              db          0h                                      
ROM:c800:0246   e303            dw          int_13_recalibrate_drive                ;11
ROM:c800:0248   00              db          0h                                      
ROM:c800:0249   ea03            dw          int_13_controller_ram_test              ;12
ROM:c800:024b   00              db          0h                                      
ROM:c800:024c   ee03            dw          int_13_drive_test                       ;13
ROM:c800:024e   00              db          0h                                      
ROM:c800:024f   0004            dw          int_13_controller_diagnostic            ;14
ROM:c800:0251   00              db          0h                                      
ROM:c800:0252   0704            dw          int_13_read_drive_type                  ;15
ROM:c800:0254   00              db          0h                                      
ROM:c800:0255   3404            dw          int_13_detect_media_change              ;16 (Detect media change - floppy)
                                                                                    ;May not be an int 13 function
ROM:c800:0257   00              db          0h                                      
ROM:c800:0258   0d02            dw          set_invalid_function_reqested           ;17 (Set media type - floppy)
                                                                                    ;May not be an int 13 function
ROM:c800:025a   02              db          2h                                      
ROM:c800:025b   0d02            dw          set_invalid_function_reqested           ;18 (Set media type - floppy)
                                                                                    ;May not be an int 13 function
ROM:c800:025d   03              db          3h                                      
                            ;************************************************************************************************
                            ;*                                           FUNCTION                                           *
                            ;************************************************************************************************
                            ;undefined int_13_reset_disk_system()
                                                          ;XREF[2,0]:   c800:0213,c800:023a
ROM:c800:025e   e8c802          CALL        set_interface_paramters                 ;undefined set_interface_paramters()
ROM:c800:0261   e8bb02          CALL        write_reset_port                        ;undefined write_reset_port()
ROM:c800:0264   33c0            XOR         AX,AX                                   
ROM:c800:0266   e82704          CALL        FUN_c800_0690                           ;undefined FUN_c800_0690()
ROM:c800:0269   c3              RET                                                  
                            ;************************************************************************************************
                            ;*                                           FUNCTION                                           *
                            ;************************************************************************************************
                            ;undefined int_13_get_status_of_last_operation()
                                                          ;XREF[2,0]:   c800:0216,c800:022e
ROM:c800:026a   a07404          MOV         AL,[BDA:fd_last_op_status]              
ROM:c800:026d   c606740400      MOV         byte ptr [BDA:fd_last_op_status],0x0    
ROM:c800:0272   c3              RET                                                  
                            ;************************************************************************************************
                            ;*                                           FUNCTION                                           *
                            ;************************************************************************************************
                            ;undefined int_13_verify_sectors()
                                                          ;XREF[1,0]:   c800:021f
ROM:c800:0273   0ac0            OR          AL,AL                                   
ROM:c800:0275   7505            JNZ         LAB_c800_027c                           
ROM:c800:0277   b400            MOV         AH,0x0                                  
ROM:c800:0279   e91404          JMP         FUN_c800_0690                           ;undefined FUN_c800_0690()
                            LAB_c800_027c:                ;XREF[1,0]:   c800:0275
ROM:c800:027c   e8aa02          CALL        set_interface_paramters                 ;undefined set_interface_paramters()
ROM:c800:027f   c606420405      MOV         byte ptr [BDA:fd_cmd_opcode],0x5        
ROM:c800:0284   a24604          MOV         [0x446],AL                              
ROM:c800:0287   c606430400      MOV         byte ptr [BDA:fd_cmd_drive_head],0x0    
ROM:c800:028c   08364304        OR          byte ptr [BDA:fd_cmd_drive_head],DH     
ROM:c800:0290   fec9            DEC         CL                                      
ROM:c800:0292   880e4404        MOV         byte ptr [BDA:fd_cmd_cylmsb_sector],CL  
ROM:c800:0296   882e4504        MOV         byte ptr [BDA:fd_cmd_cyllsb],CH         
ROM:c800:029a   b85f00          MOV         AX,0x5f                                 
ROM:c800:029d   e8a605          CALL        see_if_drive_ready                      ;undefined see_if_drive_ready()
ROM:c800:02a0   e86e03          CALL        FUN_c800_0611                           ;undefined FUN_c800_0611()
ROM:c800:02a3   c3              RET                                                  
                            ;************************************************************************************************
                            ;*                                           FUNCTION                                           *
                            ;************************************************************************************************
                            ;undefined int_13_move_drive_head_to_cylinder()
                                                          ;XREF[1,0]:   c800:0237
ROM:c800:02a4   e88202          CALL        set_interface_paramters                 ;undefined set_interface_paramters()
ROM:c800:02a7   c60642040b      MOV         byte ptr [BDA:fd_cmd_opcode],0xb        
ROM:c800:02ac   c606430400      MOV         byte ptr [BDA:fd_cmd_drive_head],0x0    
ROM:c800:02b1   08364304        OR          byte ptr [BDA:fd_cmd_drive_head],DH     
ROM:c800:02b5   880e4404        MOV         byte ptr [BDA:fd_cmd_cylmsb_sector],CL  
ROM:c800:02b9   882e4504        MOV         byte ptr [BDA:fd_cmd_cyllsb],CH         
ROM:c800:02bd   c606460400      MOV         byte ptr [BDA:fd_blockcnt_or_intlve],0x0
ROM:c800:02c2   b85f00          MOV         AX,0x5f                                 
ROM:c800:02c5   e87e05          CALL        see_if_drive_ready                      ;undefined see_if_drive_ready()
ROM:c800:02c8   e84603          CALL        FUN_c800_0611                           ;undefined FUN_c800_0611()
ROM:c800:02cb   c3              RET                                                  
                            ;************************************************************************************************
                            ;*                                           FUNCTION                                           *
                            ;************************************************************************************************
                            ;undefined int_13_write_sectors()
                                                          ;XREF[1,0]:   c800:021c
ROM:c800:02cc   b40a            MOV         AH,0xa                                  
ROM:c800:02ce   eb02            JMP         LAB_c800_02d2                           
                            ;************************************************************************************************
                            ;*                                           FUNCTION                                           *
                            ;************************************************************************************************
                            ;undefined int_13_read_sectors()
                                                          ;XREF[1,0]:   c800:0219
ROM:c800:02d0   b408            MOV         AH,0x8                                  
                            LAB_c800_02d2:                ;XREF[1,0]:   c800:02ce
ROM:c800:02d2   0ac0            OR          AL,AL                                   
ROM:c800:02d4   7505            JNZ         LAB_c800_02db                           
ROM:c800:02d6   b400            MOV         AH,0x0                                  
ROM:c800:02d8   e9b503          JMP         FUN_c800_0690                           ;undefined FUN_c800_0690()
                            LAB_c800_02db:                ;XREF[1,0]:   c800:02d4
ROM:c800:02db   3c80            CMP         AL,0x80                                 
ROM:c800:02dd   7210            JC          LAB_c800_02ef                           
ROM:c800:02df   7405            JZ          LAB_c800_02e6                           
ROM:c800:02e1   b409            MOV         AH,0x9                                  
ROM:c800:02e3   e9aa03          JMP         FUN_c800_0690                           ;undefined FUN_c800_0690()
                            LAB_c800_02e6:                ;XREF[1,0]:   c800:02df
ROM:c800:02e6   0bdb            OR          BX,BX                                   
ROM:c800:02e8   7405            JZ          LAB_c800_02ef                           
ROM:c800:02ea   b409            MOV         AH,0x9                                  
ROM:c800:02ec   e9a103          JMP         FUN_c800_0690                           ;undefined FUN_c800_0690()
                            LAB_c800_02ef:                ;XREF[2,0]:   c800:02dd,c800:02e8
ROM:c800:02ef   e83702          CALL        set_interface_paramters                 ;undefined set_interface_paramters()
ROM:c800:02f2   88264204        MOV         byte ptr [0x442],AH                     
ROM:c800:02f6   a24604          MOV         [0x446],AL                              
ROM:c800:02f9   fec9            DEC         CL                                      
ROM:c800:02fb   08364304        OR          byte ptr [0x443],DH                     
ROM:c800:02ff   880e4404        MOV         byte ptr [0x444],CL                     
ROM:c800:0303   882e4504        MOV         byte ptr [0x445],CH                     
ROM:c800:0307   b85f00          MOV         AX,0x5f                                 
ROM:c800:030a   e80f05          CALL        FUN_c800_081c                           ;undefined FUN_c800_081c()
ROM:c800:030d   e80103          CALL        FUN_c800_0611                           ;undefined FUN_c800_0611()
ROM:c800:0310   c3              RET                                                  
                            ;************************************************************************************************
                            ;*                                           FUNCTION                                           *
                            ;************************************************************************************************
                            ;undefined int_13_format_track()
                                                          ;XREF[1,0]:   c800:0222
ROM:c800:0311   b406            MOV         AH,0x6                                  
ROM:c800:0313   eb06            JMP         SUB_c800_031b                           
                            ;************************************************************************************************
                            ;*                                           FUNCTION                                           *
                            ;************************************************************************************************
                            ;undefined int_13_format_track_set_bad_sector_flags()
                                                          ;XREF[1,0]:   c800:0225
ROM:c800:0315   b407            MOV         AH,0x7                                  
ROM:c800:0317   eb02            JMP         SUB_c800_031b                           
                            ;************************************************************************************************
                            ;*                                           FUNCTION                                           *
                            ;************************************************************************************************
                            ;undefined int_13_format_drive_starting_at_track()
                                                          ;XREF[1,0]:   c800:0228
ROM:c800:0319   b404            MOV         AH,0x4                                  
                            SUB_c800_031b:                ;XREF[2,0]:   c800:0313,c800:0317
ROM:c800:031b   e80b02          CALL        set_interface_paramters                 ;undefined set_interface_paramters()
ROM:c800:031e   88264204        MOV         byte ptr [BDA:fd_cmd_opcode],AH         
ROM:c800:0322   a24604          MOV         [0x446],AL                              
ROM:c800:0325   08364304        OR          byte ptr [BDA:fd_cmd_drive_head],DH     
ROM:c800:0329   80e1c0          AND         CL,0xc0                                 
ROM:c800:032c   880e4404        MOV         byte ptr [BDA:fd_cmd_cylmsb_sector],CL  
ROM:c800:0330   882e4504        MOV         byte ptr [BDA:fd_cmd_cyllsb],CH         
ROM:c800:0334   b85f00          MOV         AX,0x5f                                 
ROM:c800:0337   2ef684150204    TEST        byte ptr CS:[SI + 0x215],0x4            
ROM:c800:033d   7403            JZ          LAB_c800_0342                           
ROM:c800:033f   b8882c          MOV         AX,0x2c88                               
                            LAB_c800_0342:                ;XREF[1,0]:   c800:033d
ROM:c800:0342   e80105          CALL        see_if_drive_ready                      ;undefined see_if_drive_ready()
ROM:c800:0345   e8c902          CALL        FUN_c800_0611                           ;undefined FUN_c800_0611()
ROM:c800:0348   c3              RET                                                  
                            ;************************************************************************************************
                            ;*                                           FUNCTION                                           *
                            ;************************************************************************************************
                            ;undefined int_13_read_drive_parameters()
                                                          ;XREF[1,0]:   c800:022b
ROM:c800:0349   c606740400      MOV         byte ptr [0x474],0x0                    
ROM:c800:034e   e8a202          CALL        FUN_c800_05f3                           ;undefined FUN_c800_05f3()
ROM:c800:0351   33db            XOR         BX,BX                                   
ROM:c800:0353   2e8b09          MOV         CX,word ptr CS:[BX + DI]                
ROM:c800:0356   49              DEC         CX                                      
ROM:c800:0357   49              DEC         CX                                      
ROM:c800:0358   86e9            XCHG        CL,CH                                   
ROM:c800:035a   d0c9            ROR         CL,1                                    
ROM:c800:035c   d0c9            ROR         CL,1                                    
ROM:c800:035e   43              INC         BX                                      
ROM:c800:035f   43              INC         BX                                      
ROM:c800:0360   2e8a31          MOV         DH,byte ptr CS:[BX + DI]                
ROM:c800:0363   fece            DEC         DH                                      
ROM:c800:0365   8a167504        MOV         DL,byte ptr [BDA:fd_num_drives]         
ROM:c800:0369   83c30c          ADD         BX,0xc                                  
ROM:c800:036c   2e0a09          OR          CL,byte ptr CS:[BX + DI]                
ROM:c800:036f   33c0            XOR         AX,AX                                   
ROM:c800:0371   8b5e0a          MOV         BX,word ptr [BP + 0xa]                  
ROM:c800:0374   f8              CLC                                                  
ROM:c800:0375   83c410          ADD         SP,0x10                                 
ROM:c800:0378   e98afe          JMP         LAB_c800_0205                           
                            ;************************************************************************************************
                            ;*                                           FUNCTION                                           *
                            ;************************************************************************************************
                            ;undefined set_last_op_status_no_errors()
ROM:c800:037b   33c0            XOR         AX,AX                                   
ROM:c800:037d   88267404        MOV         byte ptr [BDA:fd_last_op_status],AH     
ROM:c800:0381   c3              RET                                                  
                            ;************************************************************************************************
                            ;*                                           FUNCTION                                           *
                            ;************************************************************************************************
                            ;undefined int_13_write_long_sectors()
                                                          ;XREF[1,0]:   c800:0234
ROM:c800:0382   b4e6            MOV         AH,0xe6                                 
ROM:c800:0384   eb02            JMP         LAB_c800_0388                           
                            ;************************************************************************************************
                            ;*                                           FUNCTION                                           *
                            ;************************************************************************************************
                            ;undefined int_13_read_long_sectors()
                                                          ;XREF[1,0]:   c800:0231
ROM:c800:0386   b4e5            MOV         AH,0xe5                                 
                            LAB_c800_0388:                ;XREF[1,0]:   c800:0384
ROM:c800:0388   0ac0            OR          AL,AL                                   
ROM:c800:038a   7505            JNZ         LAB_c800_0391                           
ROM:c800:038c   b400            MOV         AH,0x0                                  
ROM:c800:038e   e9ff02          JMP         FUN_c800_0690                           ;undefined FUN_c800_0690()
                            LAB_c800_0391:                ;XREF[1,0]:   c800:038a
ROM:c800:0391   3c80            CMP         AL,0x80                                 
ROM:c800:0393   7204            JC          LAB_c800_0399                           
ROM:c800:0395   e975fe          JMP         set_invalid_function_reqested           ;undefined set_invalid_function_reqes...
ROM:c800:0398   c3              ??          C3h                                     
                            LAB_c800_0399:                ;XREF[1,0]:   c800:0393
ROM:c800:0399   e88d01          CALL        set_interface_paramters                 ;undefined set_interface_paramters()
ROM:c800:039c   08364304        OR          byte ptr [BDA:fd_cmd_drive_head],DH     
ROM:c800:03a0   fec9            DEC         CL                                      
ROM:c800:03a2   88264204        MOV         byte ptr [BDA:fd_cmd_opcode],AH         
ROM:c800:03a6   c606460401      MOV         byte ptr [BDA:fd_blockcnt_or_intlve],0x1
ROM:c800:03ab   880e4404        MOV         byte ptr [BDA:fd_cmd_cylmsb_sector],CL  
ROM:c800:03af   882e4504        MOV         byte ptr [BDA:fd_cmd_cyllsb],CH         
ROM:c800:03b3   c606470480      MOV         byte ptr [BDA:fd_cmd_flags],0x80        
ROM:c800:03b8   b85f00          MOV         AX,0x5f                                 
ROM:c800:03bb   e85e04          CALL        FUN_c800_081c                           ;undefined FUN_c800_081c()
ROM:c800:03be   e85002          CALL        FUN_c800_0611                           ;undefined FUN_c800_0611()
ROM:c800:03c1   c3              RET                                                  
                            ;************************************************************************************************
                            ;*                                           FUNCTION                                           *
                            ;************************************************************************************************
                            ;undefined int_13_controller_read_test()
                                                          ;XREF[1,0]:   c800:023d
ROM:c800:03c2   b40e            MOV         AH,0xe                                  
                            LAB_c800_03c4:                ;XREF[1,0]:   c800:03d7
ROM:c800:03c4   e86201          CALL        set_interface_paramters                 ;undefined set_interface_paramters()
ROM:c800:03c7   88264204        MOV         byte ptr [BDA:fd_cmd_opcode],AH         
ROM:c800:03cb   b83900          MOV         AX,0x39                                 
ROM:c800:03ce   e84b04          CALL        FUN_c800_081c                           ;undefined FUN_c800_081c()
ROM:c800:03d1   e83d02          CALL        FUN_c800_0611                           ;undefined FUN_c800_0611()
ROM:c800:03d4   c3              RET                                                  
                            ;************************************************************************************************
                            ;*                                           FUNCTION                                           *
                            ;************************************************************************************************
                            ;undefined int_13_controller_write_test()
                                                          ;XREF[1,0]:   c800:0240
ROM:c800:03d5   b40f            MOV         AH,0xf                                  
ROM:c800:03d7   ebeb            JMP         LAB_c800_03c4                           
                            ;************************************************************************************************
                            ;*                                           FUNCTION                                           *
                            ;************************************************************************************************
                            ;undefined int_13_test_whether_drive_is_ready()
                                                          ;XREF[1,0]:   c800:0243
ROM:c800:03d9   b83900          MOV         AX,0x39                                 
ROM:c800:03dc   e8a600          CALL        FUN_c800_0485                           ;undefined FUN_c800_0485()
ROM:c800:03df   e82f02          CALL        FUN_c800_0611                           ;undefined FUN_c800_0611()
ROM:c800:03e2   c3              RET                                                  
                            ;************************************************************************************************
                            ;*                                           FUNCTION                                           *
                            ;************************************************************************************************
                            ;undefined int_13_recalibrate_drive()
                                                          ;XREF[1,0]:   c800:0246
ROM:c800:03e3   e87500          CALL        FUN_c800_045b                           ;undefined FUN_c800_045b()
ROM:c800:03e6   e82802          CALL        FUN_c800_0611                           ;undefined FUN_c800_0611()
ROM:c800:03e9   c3              RET                                                  
                            ;************************************************************************************************
                            ;*                                           FUNCTION                                           *
                            ;************************************************************************************************
                            ;undefined int_13_controller_ram_test()
                                                          ;XREF[1,0]:   c800:0249
ROM:c800:03ea   e88000          CALL        FUN_c800_046d                           ;undefined FUN_c800_046d()
ROM:c800:03ed   c3              RET                                                  
                            ;************************************************************************************************
                            ;*                                           FUNCTION                                           *
                            ;************************************************************************************************
                            ;undefined int_13_drive_test()
                                                          ;XREF[1,0]:   c800:024c
ROM:c800:03ee   e83801          CALL        set_interface_paramters                 ;undefined set_interface_paramters()
ROM:c800:03f1   c6064204e3      MOV         byte ptr [0x442],0xe3                   
ROM:c800:03f6   b8882c          MOV         AX,0x2c88                               
ROM:c800:03f9   e84a04          CALL        see_if_drive_ready                      ;undefined see_if_drive_ready()
ROM:c800:03fc   e81202          CALL        FUN_c800_0611                           ;undefined FUN_c800_0611()
ROM:c800:03ff   c3              RET                                                  
                            ;************************************************************************************************
                            ;*                                           FUNCTION                                           *
                            ;************************************************************************************************
                            ;undefined int_13_controller_diagnostic()
                                                          ;XREF[1,0]:   c800:024f
ROM:c800:0400   e87c00          CALL        FUN_c800_047f                           ;undefined FUN_c800_047f()
ROM:c800:0403   e80b02          CALL        FUN_c800_0611                           ;undefined FUN_c800_0611()
ROM:c800:0406   c3              RET                                                  
                            ;************************************************************************************************
                            ;*                                           FUNCTION                                           *
                            ;************************************************************************************************
                            ;undefined int_13_read_drive_type()
                                                          ;XREF[1,0]:   c800:0252
ROM:c800:0407   c606740400      MOV         byte ptr [0x474],0x0                    
ROM:c800:040c   e8e401          CALL        FUN_c800_05f3                           ;undefined FUN_c800_05f3()
ROM:c800:040f   33db            XOR         BX,BX                                   
ROM:c800:0411   2e8b09          MOV         CX,word ptr CS:[BX + DI]                
ROM:c800:0414   49              DEC         CX                                      
ROM:c800:0415   43              INC         BX                                      
ROM:c800:0416   43              INC         BX                                      
ROM:c800:0417   2e8a01          MOV         AL,byte ptr CS:[BX + DI]                
ROM:c800:041a   83c30c          ADD         BX,0xc                                  
ROM:c800:041d   2ef621          MUL         byte ptr CS:[BX + DI]                   
ROM:c800:0420   99              CWD                                                  
ROM:c800:0421   f7e1            MUL         CX                                      
ROM:c800:0423   8bca            MOV         CX,DX                                   
ROM:c800:0425   8bd0            MOV         DX,AX                                   
ROM:c800:0427   b80003          MOV         AX,0x300                                
ROM:c800:042a   f8              CLC                                                  
ROM:c800:042b   8b5e0a          MOV         BX,word ptr [BP + 0xa]                  
ROM:c800:042e   83c410          ADD         SP,0x10                                 
ROM:c800:0431   e9d1fd          JMP         LAB_c800_0205                           
                            ;************************************************************************************************
                            ;*                                           FUNCTION                                           *
                            ;************************************************************************************************
                            ;undefined int_13_detect_media_change()
                                                          ;XREF[1,0]:   c800:0255
ROM:c800:0434   80f902          CMP         CL,0x2                                  
ROM:c800:0437   7603            JBE         LAB_c800_043c                           
ROM:c800:0439   e95202          JMP         LAB_c800_068e                           
                            LAB_c800_043c:                ;XREF[1,0]:   c800:0437
ROM:c800:043c   e8ea00          CALL        set_interface_paramters                 ;undefined set_interface_paramters()
ROM:c800:043f   c60642041a      MOV         byte ptr [BDA:fd_cmd_opcode],0x1a       
ROM:c800:0444   80f902          CMP         CL,0x2                                  
ROM:c800:0447   7504            JNZ         LAB_c800_044d                           
ROM:c800:0449   882e4504        MOV         byte ptr [BDA:fd_cmd_cyllsb],CH         
                            LAB_c800_044d:                ;XREF[1,0]:   c800:0447
ROM:c800:044d   880e4604        MOV         byte ptr [BDA:fd_blockcnt_or_intlve],CL 
ROM:c800:0451   b8e400          MOV         AX,0xe4                                 
ROM:c800:0454   e8ef03          CALL        see_if_drive_ready                      ;undefined see_if_drive_ready()
ROM:c800:0457   e8b701          CALL        FUN_c800_0611                           ;undefined FUN_c800_0611()
ROM:c800:045a   c3              RET                                                  
                            ;************************************************************************************************
                            ;*                                           FUNCTION                                           *
                            ;************************************************************************************************
                            ;undefined FUN_c800_045b()
                                                          ;XREF[1,0]:   c800:03e3
ROM:c800:045b   e8cb00          CALL        set_interface_paramters                 ;undefined set_interface_paramters()
ROM:c800:045e   c606420401      MOV         byte ptr [0x442],0x1                    
ROM:c800:0463   b85f00          MOV         AX,0x5f                                 
ROM:c800:0466   e8dd03          CALL        see_if_drive_ready                      ;undefined see_if_drive_ready()
ROM:c800:0469   e8a501          CALL        FUN_c800_0611                           ;undefined FUN_c800_0611()
ROM:c800:046c   c3              RET                                                  
                            ;************************************************************************************************
                            ;*                                           FUNCTION                                           *
                            ;************************************************************************************************
                            ;undefined FUN_c800_046d()
                                                          ;XREF[1,0]:   c800:03ea
ROM:c800:046d   b0e0            MOV         AL,0xe0                                 
                            LAB_c800_046f:                ;XREF[1,0]:   c800:0483
ROM:c800:046f   e8b700          CALL        set_interface_paramters                 ;undefined set_interface_paramters()
ROM:c800:0472   a24204          MOV         [0x442],AL                              
ROM:c800:0475   b83a02          MOV         AX,0x23a                                
ROM:c800:0478   e8cb03          CALL        see_if_drive_ready                      ;undefined see_if_drive_ready()
ROM:c800:047b   e89301          CALL        FUN_c800_0611                           ;undefined FUN_c800_0611()
ROM:c800:047e   c3              RET                                                  
                            ;************************************************************************************************
                            ;*                                           FUNCTION                                           *
                            ;************************************************************************************************
                            ;undefined FUN_c800_047f()
                                                          ;XREF[1,0]:   c800:0400
ROM:c800:047f   b0e4            MOV         AL,0xe4                                 
ROM:c800:0481   33d2            XOR         DX,DX                                   
ROM:c800:0483   ebea            JMP         LAB_c800_046f                           
                            ;************************************************************************************************
                            ;*                                           FUNCTION                                           *
                            ;************************************************************************************************
                            ;undefined FUN_c800_0485()
                                                          ;XREF[1,0]:   c800:03dc
ROM:c800:0485   50              PUSH        AX                                      
ROM:c800:0486   e8a000          CALL        set_interface_paramters                 ;undefined set_interface_paramters()
ROM:c800:0489   c606420400      MOV         byte ptr [0x442],0x0                    
ROM:c800:048e   58              POP         AX                                      
ROM:c800:048f   e8b403          CALL        see_if_drive_ready                      ;undefined see_if_drive_ready()
ROM:c800:0492   c3              RET                                                  
                            int_19_handler:               ;XREF[2,0]:   c800:011d,c800:0502
ROM:c800:0493   1e              PUSH        DS                                      
ROM:c800:0494   06              PUSH        ES                                      
ROM:c800:0495   0e              PUSH        CS                                      
ROM:c800:0496   1f              POP         DS                                      
ROM:c800:0497   33c0            XOR         AX,AX                                   
ROM:c800:0499   8ec0            MOV         ES,AX                                   
ROM:c800:049b   fa              CLI                                                  
ROM:c800:049c   c70678001405    MOV         word ptr [0x78],irq_1e_handler          ;Takes over IRQ 1E. Handler does noth...
ROM:c800:04a2   8c0e7a00        MOV         word ptr [0x7a],CS                      
ROM:c800:04a6   fb              STI                                                  
ROM:c800:04a7   b90400          MOV         CX,0x4                                  
                            LAB_c800_04aa:                ;XREF[1,0]:   c800:04ca
ROM:c800:04aa   51              PUSH        CX                                      
ROM:c800:04ab   33c0            XOR         AX,AX                                   
ROM:c800:04ad   33d2            XOR         DX,DX                                   
ROM:c800:04af   cd13            INT         0x13                                    
ROM:c800:04b1   720f            JC          LAB_c800_04c2                           
ROM:c800:04b3   b80102          MOV         AX,0x201                                
ROM:c800:04b6   bb007c          MOV         BX,0x7c00                               
ROM:c800:04b9   b90100          MOV         CX,0x1                                  
ROM:c800:04bc   33d2            XOR         DX,DX                                   
ROM:c800:04be   8ec2            MOV         ES,DX                                   
ROM:c800:04c0   cd13            INT         0x13                                    
                            LAB_c800_04c2:                ;XREF[1,0]:   c800:04b1
ROM:c800:04c2   59              POP         CX                                      
ROM:c800:04c3   7348            JNC         LAB_c800_050d                           
ROM:c800:04c5   80fc80          CMP         AH,0x80                                 
ROM:c800:04c8   7402            JZ          LAB_c800_04cc                           
ROM:c800:04ca   e2de            LOOP        LAB_c800_04aa                           
                            LAB_c800_04cc:                ;XREF[1,0]:   c800:04c8
ROM:c800:04cc   33c0            XOR         AX,AX                                   
ROM:c800:04ce   33d2            XOR         DX,DX                                   
ROM:c800:04d0   cd13            INT         0x13                                    
ROM:c800:04d2   b90400          MOV         CX,0x4                                  
                            LAB_c800_04d5:                ;XREF[1,0]:   c800:04f5
ROM:c800:04d5   51              PUSH        CX                                      
ROM:c800:04d6   33c0            XOR         AX,AX                                   
ROM:c800:04d8   81f28000        XOR         DX,0x80                                 
ROM:c800:04dc   cd13            INT         0x13                                    
ROM:c800:04de   7212            JC          LAB_c800_04f2                           
ROM:c800:04e0   b80102          MOV         AX,0x201                                
ROM:c800:04e3   33db            XOR         BX,BX                                   
ROM:c800:04e5   8ec3            MOV         ES,BX                                   
ROM:c800:04e7   bb007c          MOV         BX,0x7c00                               
ROM:c800:04ea   b90100          MOV         CX,0x1                                  
ROM:c800:04ed   ba8000          MOV         DX,0x80                                 
ROM:c800:04f0   cd13            INT         0x13                                    
                            LAB_c800_04f2:                ;XREF[1,0]:   c800:04de
ROM:c800:04f2   59              POP         CX                                      
ROM:c800:04f3   730f            JNC         LAB_c800_0504                           
ROM:c800:04f5   e2de            LOOP        LAB_c800_04d5                           
                            LAB_c800_04f7:                ;XREF[1,0]:   c800:050b
ROM:c800:04f7   cd18            INT         0x18                                    
ROM:c800:04f9   be820e          MOV         SI,string_disk_boot_failure             ;= 2Dh    -
ROM:c800:04fc   e87700          CALL        display_string_with_length              ;undefined display_string_with_length()
ROM:c800:04ff   e8d902          CALL        get_keystroke_with_wait                 ;undefined get_keystroke_with_wait()
ROM:c800:0502   eb8f            JMP         int_19_handler                          
                            LAB_c800_0504:                ;XREF[1,0]:   c800:04f3
ROM:c800:0504   26813efe7...    CMP         word ptr ES:[0x7dfe],0xaa55             ;Checking for BIOS header
ROM:c800:050b   75ea            JNZ         LAB_c800_04f7                           
                            LAB_c800_050d:                ;XREF[1,0]:   c800:04c3
ROM:c800:050d   07              POP         ES                                      
ROM:c800:050e   1f              POP         DS                                      
ROM:c800:050f   ea007c0000      JMPF        0000:7c00                               
                            irq_1e_handler:               ;XREF[1,0]:   c800:049c
ROM:c800:0514   cf              IRET                                                 
ROM:c800:0515   02              ??          02h                                     
ROM:c800:0516   25              ??          25h    %                                
ROM:c800:0517   02              ??          02h                                     
ROM:c800:0518   08              ??          08h                                     
ROM:c800:0519   2a              ??          2Ah    *                                
ROM:c800:051a   ff              ??          FFh                                     
ROM:c800:051b   50              ??          50h    P                                
ROM:c800:051c   f6              ??          F6h                                     
ROM:c800:051d   19              ??          19h                                     
ROM:c800:051e   08              ??          08h                                     
                            ;************************************************************************************************
                            ;*                                           FUNCTION                                           *
                            ;************************************************************************************************
                            ;undefined write_reset_port()
                                                          ;XREF[4,0]:   c800:00a7,c800:0261,c800:08b7,c800:097c
ROM:c800:051f   52              PUSH        DX                                      
ROM:c800:0520   8b5600          MOV         DX,word ptr [BP + 0x0]                  ;DX = 320 or 324
ROM:c800:0523   83c201          ADD         DX,0x1                                  ;DX = 321 or 325
ROM:c800:0526   ee              OUT         DX,AL                                   
ROM:c800:0527   5a              POP         DX                                      
ROM:c800:0528   c3              RET                                                  
                            ;************************************************************************************************
                            ;*                                           FUNCTION                                           *
                            ;************************************************************************************************
                            ;undefined set_interface_paramters()
                                                          ;XREF[14,0]:  c800:00a4,c800:025e,c800:027c,c800:02a4
                                                          ;             c800:02ef,c800:031b,c800:0399,c800:03c4
                                                          ;             c800:03ee,c800:043c,c800:045b,c800:046f
                                                          ;             c800:0486,c800:0966
ROM:c800:0529   50              PUSH        AX                                      
ROM:c800:052a   51              PUSH        CX                                      
ROM:c800:052b   57              PUSH        DI                                      
ROM:c800:052c   06              PUSH        ES                                      
ROM:c800:052d   bf4204          MOV         DI,BDA:fd_cmd_opcode                    
ROM:c800:0530   b90600          MOV         CX,0x6                                  
ROM:c800:0533   33c0            XOR         AX,AX                                   
ROM:c800:0535   8ec0            MOV         ES,AX                                   
ROM:c800:0537   f3aa            STOSB.REP   ES:DI                                   
ROM:c800:0539   c746002003      MOV         word ptr [BP + 0x0],0x320               ;Drive 0 base address
ROM:c800:053e   0ad2            OR          DL,DL                                   
ROM:c800:0540   7405            JZ          LAB_c800_0547                           
ROM:c800:0542   c746002403      MOV         word ptr [BP + 0x0],0x324               ;Drive 1 base address
                            LAB_c800_0547:                ;XREF[1,0]:   c800:0540
ROM:c800:0547   c606740400      MOV         byte ptr [BDA:fd_last_op_status],0x0    
ROM:c800:054c   c746040000      MOV         word ptr [BP + 0x4],0x0                 
ROM:c800:0551   c606470440      MOV         byte ptr [BDA:fd_cmd_flags],0x40        
ROM:c800:0556   f6067604c0      TEST        byte ptr [BDA:fd_control_byte],0xc0     
ROM:c800:055b   7405            JZ          LAB_c800_0562                           
ROM:c800:055d   c606470480      MOV         byte ptr [BDA:fd_cmd_flags],0x80        
                            LAB_c800_0562:                ;XREF[1,0]:   c800:055b
ROM:c800:0562   07              POP         ES                                      
ROM:c800:0563   5f              POP         DI                                      
ROM:c800:0564   59              POP         CX                                      
ROM:c800:0565   58              POP         AX                                      
ROM:c800:0566   c3              RET                                                  
                            ;************************************************************************************************
                            ;*    Displays a string. First two bytes are row, column. Then 0 terminated string follows.     *
                            ;************************************************************************************************
                            ;undefined display_string_with_coords()
                                                          ;XREF[19,0]:  c800:072c,c800:0a0f,c800:0a29,c800:0a35
                                                          ;             c800:0a5e,c800:0a81,c800:0aa0,c800:0ac3
                                                          ;             c800:0adc,c800:0b05,c800:0b6f,c800:0b81
                                                          ;             c800:0bfa,c800:0c00,c800:0c13,c800:0c5c
                                                          ;             c800:0c68,c800:0c6e,c800:0d56
ROM:c800:0567   2e8b14          MOV         DX,word ptr CS:[SI]                     
ROM:c800:056a   46              INC         SI                                      
ROM:c800:056b   46              INC         SI                                      
ROM:c800:056c   56              PUSH        SI                                      
ROM:c800:056d   b402            MOV         AH,0x2                                  
ROM:c800:056f   b700            MOV         BH,0x0                                  
ROM:c800:0571   55              PUSH        BP                                      
ROM:c800:0572   cd10            INT         0x10                                    ;Set cursor to row/column bytes at SI
ROM:c800:0574   5d              POP         BP                                      
ROM:c800:0575   5e              POP         SI                                      
                            ;************************************************************************************************
                            ;*                                           FUNCTION                                           *
                            ;************************************************************************************************
                            ;undefined display_string_with_length()
                                                          ;XREF[5,0]:   c800:0059,c800:008c,c800:04fc,c800:07f3
                                                          ;             c800:07f9
ROM:c800:0576   06              PUSH        ES                                      
ROM:c800:0577   0e              PUSH        CS                                      
ROM:c800:0578   07              POP         ES                                      
ROM:c800:0579   32ed            XOR         CH,CH                                   
ROM:c800:057b   268a0c          MOV         CL,byte ptr ES:[SI]                     ;Load char count from [SI]
ROM:c800:057e   46              INC         SI                                      
ROM:c800:057f   e30e            JCXZ        LAB_c800_058f                           ;skip if count == 0
                            LAB_c800_0581:                ;XREF[1,0]:   c800:058d
ROM:c800:0581   b307            MOV         BL,0x7                                  
ROM:c800:0583   b40e            MOV         AH,0xe                                  
ROM:c800:0585   268a04          MOV         AL,byte ptr ES:[SI]                     
ROM:c800:0588   55              PUSH        BP                                      
ROM:c800:0589   cd10            INT         0x10                                    ;Display character
ROM:c800:058b   5d              POP         BP                                      
ROM:c800:058c   46              INC         SI                                      
ROM:c800:058d   e2f2            LOOP        LAB_c800_0581                           ;Continue until count is 0
                            LAB_c800_058f:                ;XREF[1,0]:   c800:057f
ROM:c800:058f   07              POP         ES                                      
ROM:c800:0590   c3              RET                                                  
                            ;************************************************************************************************
                            ;*                                           FUNCTION                                           *
                            ;************************************************************************************************
                            ;undefined FUN_c800_0591()
                                                          ;XREF[1,0]:   c800:081d
ROM:c800:0591   8b4612          MOV         AX,word ptr [BP + 0x12]                 
ROM:c800:0594   d1c0            ROL         AX                                      
ROM:c800:0596   d1c0            ROL         AX                                      
ROM:c800:0598   d1c0            ROL         AX                                      
ROM:c800:059a   d1c0            ROL         AX                                      
ROM:c800:059c   8bd0            MOV         DX,AX                                   
ROM:c800:059e   25f0ff          AND         AX,0xfff0                               
ROM:c800:05a1   83e20f          AND         DX,0xf                                  
ROM:c800:05a4   8b5e0a          MOV         BX,word ptr [BP + 0xa]                  
ROM:c800:05a7   03c3            ADD         AX,BX                                   
ROM:c800:05a9   83d200          ADC         DX,0x0                                  
ROM:c800:05ac   8bca            MOV         CX,DX                                   
ROM:c800:05ae   8bd8            MOV         BX,AX                                   
ROM:c800:05b0   b80002          MOV         AX,0x200                                
ROM:c800:05b3   803e4204e5      CMP         byte ptr [0x442],0xe5                   
ROM:c800:05b8   7407            JZ          LAB_c800_05c1                           
ROM:c800:05ba   803e4204e6      CMP         byte ptr [0x442],0xe6                   
ROM:c800:05bf   7503            JNZ         LAB_c800_05c4                           
                            LAB_c800_05c1:                ;XREF[1,0]:   c800:05b8
ROM:c800:05c1   b80402          MOV         AX,0x204                                
                            LAB_c800_05c4:                ;XREF[1,0]:   c800:05bf
ROM:c800:05c4   803e42040f      CMP         byte ptr [0x442],0xf                    
ROM:c800:05c9   7407            JZ          LAB_c800_05d2                           
ROM:c800:05cb   803e42040e      CMP         byte ptr [0x442],0xe                    
ROM:c800:05d0   7505            JNZ         LAB_c800_05d7                           
                            LAB_c800_05d2:                ;XREF[1,0]:   c800:05c9
ROM:c800:05d2   b201            MOV         DL,0x1                                  
ROM:c800:05d4   eb04            JMP         LAB_c800_05da                           
ROM:c800:05d6   90              ??          90h                                     
                            LAB_c800_05d7:                ;XREF[1,0]:   c800:05d0
ROM:c800:05d7   8b560c          MOV         DX,word ptr [BP + 0xc]                  
                            LAB_c800_05da:                ;XREF[1,0]:   c800:05d4
ROM:c800:05da   32f6            XOR         DH,DH                                   
ROM:c800:05dc   f7e2            MUL         DX                                      
ROM:c800:05de   3d0000          CMP         AX,0x0                                  
ROM:c800:05e1   7506            JNZ         LAB_c800_05e9                           
ROM:c800:05e3   0bdb            OR          BX,BX                                   
ROM:c800:05e5   7408            JZ          LAB_c800_05ef                           
ROM:c800:05e7   eb08            JMP         LAB_c800_05f1                           
                            LAB_c800_05e9:                ;XREF[1,0]:   c800:05e1
ROM:c800:05e9   03c3            ADD         AX,BX                                   
ROM:c800:05eb   7402            JZ          LAB_c800_05ef                           
ROM:c800:05ed   7202            JC          LAB_c800_05f1                           
                            LAB_c800_05ef:                ;XREF[2,0]:   c800:05e5,c800:05eb
ROM:c800:05ef   f8              CLC                                                  
ROM:c800:05f0   c3              RET                                                  
                            LAB_c800_05f1:                ;XREF[2,0]:   c800:05e7,c800:05ed
ROM:c800:05f1   f9              STC                                                  
ROM:c800:05f2   c3              RET                                                  
                            ;************************************************************************************************
                            ;*                                           FUNCTION                                           *
                            ;************************************************************************************************
                            ;undefined FUN_c800_05f3()
                                                          ;XREF[2,0]:   c800:034e,c800:040c
ROM:c800:05f3   53              PUSH        BX                                      
ROM:c800:05f4   52              PUSH        DX                                      
ROM:c800:05f5   0ad2            OR          DL,DL                                   
ROM:c800:05f7   ba2003          MOV         DX,0x320                                
ROM:c800:05fa   7403            JZ          LAB_c800_05ff                           
ROM:c800:05fc   ba2403          MOV         DX,0x324                                
                            LAB_c800_05ff:                ;XREF[1,0]:   c800:05fa
ROM:c800:05ff   83c202          ADD         DX,0x2                                  
ROM:c800:0602   ec              IN          AL,DX                                   
ROM:c800:0603   2403            AND         AL,0x3                                  
ROM:c800:0605   bf2901          MOV         DI,0x129                                
ROM:c800:0608   b310            MOV         BL,0x10                                 
ROM:c800:060a   f6e3            MUL         BL                                      
ROM:c800:060c   03f8            ADD         DI,AX                                   
ROM:c800:060e   5a              POP         DX                                      
ROM:c800:060f   5b              POP         BX                                      
ROM:c800:0610   c3              RET                                                  
                            ;************************************************************************************************
                            ;*                                           FUNCTION                                           *
                            ;************************************************************************************************
                            ;undefined FUN_c800_0611()
                                                          ;XREF[13,0]:  c800:02a0,c800:02c8,c800:030d,c800:0345
                                                          ;             c800:03be,c800:03d1,c800:03df,c800:03e6
                                                          ;             c800:03fc,c800:0403,c800:0457,c800:0469
                                                          ;             c800:047b
ROM:c800:0611   8b4604          MOV         AX,word ptr [BP + 0x4]                  
ROM:c800:0614   0ac0            OR          AL,AL                                   
ROM:c800:0616   751e            JNZ         LAB_c800_0636                           
ROM:c800:0618   a07404          MOV         AL,[0x474]                              
ROM:c800:061b   8ae0            MOV         AH,AL                                   
ROM:c800:061d   0ac0            OR          AL,AL                                   
ROM:c800:061f   7427            JZ          LAB_c800_0648                           
ROM:c800:0621   a880            TEST        AL,0x80                                 
ROM:c800:0623   7423            JZ          LAB_c800_0648                           
ROM:c800:0625   3c88            CMP         AL,0x88                                 
ROM:c800:0627   7605            JBE         LAB_c800_062e                           
ROM:c800:0629   b4bb            MOV         AH,0xbb                                 
ROM:c800:062b   eb1b            JMP         LAB_c800_0648                           
ROM:c800:062d   90              NOP                                                  
                            LAB_c800_062e:                ;XREF[1,0]:   c800:0627
ROM:c800:062e   247f            AND         AL,0x7f                                 
ROM:c800:0630   bb8506          MOV         BX,0x685                                
ROM:c800:0633   eb0c            JMP         LAB_c800_0641                           
ROM:c800:0635   90              NOP                                                  
                            LAB_c800_0636:                ;XREF[1,0]:   c800:0616
ROM:c800:0636   bb4d06          MOV         BX,0x64d                                
ROM:c800:0639   b4bb            MOV         AH,0xbb                                 
ROM:c800:063b   3c39            CMP         AL,0x39                                 
ROM:c800:063d   90              NOP                                                  
ROM:c800:063e   90              NOP                                                  
ROM:c800:063f   7307            JNC         LAB_c800_0648                           
                            LAB_c800_0641:                ;XREF[1,0]:   c800:0633
ROM:c800:0641   1e              PUSH        DS                                      
ROM:c800:0642   0e              PUSH        CS                                      
ROM:c800:0643   1f              POP         DS                                      
ROM:c800:0644   d7              XLAT        ,BX                                     
ROM:c800:0645   1f              POP         DS                                      
ROM:c800:0646   8ae0            MOV         AH,AL                                   
                            LAB_c800_0648:                ;XREF[4,0]:   c800:061f,c800:0623,c800:062b,c800:063f
ROM:c800:0648   88267404        MOV         byte ptr [0x474],AH                     
ROM:c800:064c   c3              RET                                                  
ROM:c800:064d   00              ??          00h                                     
ROM:c800:064e   bb              ??          BBh                                     
ROM:c800:064f   40              ??          40h    @                                
ROM:c800:0650   cc              ??          CCh                                     
ROM:c800:0651   aa              ??          AAh                                     
ROM:c800:0652   bb              ??          BBh                                     
ROM:c800:0653   bb              ??          BBh                                     
ROM:c800:0654   bb              ??          BBh                                     
ROM:c800:0655   bb              ??          BBh                                     
ROM:c800:0656   09              ??          09h                                     
ROM:c800:0657   bb              ??          BBh                                     
ROM:c800:0658   bb              ??          BBh                                     
ROM:c800:0659   bb              ??          BBh                                     
ROM:c800:065a   bb              ??          BBh                                     
ROM:c800:065b   bb              ??          BBh                                     
ROM:c800:065c   bb              ??          BBh                                     
ROM:c800:065d   10              ??          10h                                     
ROM:c800:065e   10              ??          10h                                     
ROM:c800:065f   02              ??          02h                                     
ROM:c800:0660   bb              ??          BBh                                     
ROM:c800:0661   04              ??          04h                                     
ROM:c800:0662   40              ??          40h    @                                
ROM:c800:0663   20              ??          20h                                     
ROM:c800:0664   bb              ??          BBh                                     
ROM:c800:0665   11              ??          11h                                     
ROM:c800:0666   0b              ??          0Bh                                     
ROM:c800:0667   bb              ??          BBh                                     
ROM:c800:0668   bb              ??          BBh                                     
ROM:c800:0669   bb              ??          BBh                                     
ROM:c800:066a   bb              ??          BBh                                     
ROM:c800:066b   bb              ??          BBh                                     
ROM:c800:066c   bb              ??          BBh                                     
ROM:c800:066d   01              ??          01h                                     
ROM:c800:066e   07              ??          07h                                     
ROM:c800:066f   bb              ??          BBh                                     
ROM:c800:0670   bb              ??          BBh                                     
ROM:c800:0671   bb              ??          BBh                                     
ROM:c800:0672   bb              ??          BBh                                     
ROM:c800:0673   bb              ??          BBh                                     
ROM:c800:0674   bb              ??          BBh                                     
ROM:c800:0675   bb              ??          BBh                                     
ROM:c800:0676   bb              ??          BBh                                     
ROM:c800:0677   bb              ??          BBh                                     
ROM:c800:0678   bb              ??          BBh                                     
ROM:c800:0679   bb              ??          BBh                                     
ROM:c800:067a   bb              ??          BBh                                     
ROM:c800:067b   bb              ??          BBh                                     
ROM:c800:067c   bb              ??          BBh                                     
ROM:c800:067d   20              ??          20h                                     
ROM:c800:067e   20              ??          20h                                     
ROM:c800:067f   bb              ??          BBh                                     
ROM:c800:0680   20              ??          20h                                     
ROM:c800:0681   20              ??          20h                                     
ROM:c800:0682   20              ??          20h                                     
ROM:c800:0683   bb              ??          BBh                                     
ROM:c800:0684   bb              ??          BBh                                     
ROM:c800:0685   80              ??          80h                                     
ROM:c800:0686   bb              ??          BBh                                     
ROM:c800:0687   bb              ??          BBh                                     
ROM:c800:0688   80              ??          80h                                     
ROM:c800:0689   80              ??          80h                                     
ROM:c800:068a   bb              ??          BBh                                     
ROM:c800:068b   80              ??          80h                                     
ROM:c800:068c   bb              ??          BBh                                     
ROM:c800:068d   ff              ??          FFh                                     
                            LAB_c800_068e:                ;XREF[1,0]:   c800:0439
ROM:c800:068e   b407            MOV         AH,0x7                                  
                            ;************************************************************************************************
                            ;*                                           FUNCTION                                           *
                            ;************************************************************************************************
                            ;undefined FUN_c800_0690()
                                                          ;XREF[7,0]:   c800:0266,c800:0279,c800:02d8,c800:02e3
                                                          ;             c800:02ec,c800:038e,c800:0828
ROM:c800:0690   88267404        MOV         byte ptr [BDA:fd_last_op_status],AH     
ROM:c800:0694   c3              RET                                                  
                            ;************************************************************************************************
                            ;*                                           FUNCTION                                           *
                            ;************************************************************************************************
                            ;undefined wait_for_status_with_timeout()
                            ;BL = expected status
                            ;DX = status port
                            ;AX = timeout in ticks
                                                          ;XREF[5,0]:   c800:0876,c800:08b1,c800:099f,c800:09b4
                                                          ;             c800:09d3
ROM:c800:0695   57              PUSH        DI                                      
ROM:c800:0696   06              PUSH        ES                                      
ROM:c800:0697   33ff            XOR         DI,DI                                   
ROM:c800:0699   8ec7            MOV         ES,DI                                   
ROM:c800:069b   8bf8            MOV         DI,AX                                   
ROM:c800:069d   fa              CLI                                                  
ROM:c800:069e   e421            IN          AL,0x21                                 
ROM:c800:06a0   24fe            AND         AL,0xfe                                 
ROM:c800:06a2   eb00            JMP         LAB_c800_06a4                           
                            LAB_c800_06a4:                ;XREF[1,0]:   c800:06a2
ROM:c800:06a4   e621            OUT         0x21,AL                                 
ROM:c800:06a6   a16c04          MOV         AX,[BDA:timer_ticks]                    
ROM:c800:06a9   894602          MOV         word ptr [BP + 0x2],AX                  
ROM:c800:06ac   fb              STI                                                  
                            LAB_c800_06ad:                ;XREF[2,0]:   c800:06bb,c800:06c6
ROM:c800:06ad   ec              IN          AL,DX                                   
ROM:c800:06ae   240f            AND         AL,0xf                                  
ROM:c800:06b0   3ac3            CMP         AL,BL                                   
ROM:c800:06b2   7417            JZ          LAB_c800_06cb                           
ROM:c800:06b4   8b4602          MOV         AX,word ptr [BP + 0x2]                  
ROM:c800:06b7   3b066c04        CMP         AX,word ptr [BDA:timer_ticks]           
ROM:c800:06bb   74f0            JZ          LAB_c800_06ad                           
ROM:c800:06bd   fa              CLI                                                  
ROM:c800:06be   a16c04          MOV         AX,[BDA:timer_ticks]                    
ROM:c800:06c1   894602          MOV         word ptr [BP + 0x2],AX                  
ROM:c800:06c4   fb              STI                                                  
ROM:c800:06c5   4f              DEC         DI                                      
ROM:c800:06c6   75e5            JNZ         LAB_c800_06ad                           
ROM:c800:06c8   f9              STC                                                  
ROM:c800:06c9   eb01            JMP         LAB_c800_06cc                           
                            LAB_c800_06cb:                ;XREF[1,0]:   c800:06b2
ROM:c800:06cb   f8              CLC                                                  
                            LAB_c800_06cc:                ;XREF[1,0]:   c800:06c9
ROM:c800:06cc   07              POP         ES                                      
ROM:c800:06cd   5f              POP         DI                                      
ROM:c800:06ce   c3              RET                                                  
                            ;************************************************************************************************
                            ;*                                           FUNCTION                                           *
                            ;************************************************************************************************
                            ;undefined wait_for_n_ticks()
                                                          ;XREF[2,0]:   c800:005f,c800:0092
ROM:c800:06cf   57              PUSH        DI                                      
ROM:c800:06d0   06              PUSH        ES                                      
ROM:c800:06d1   33ff            XOR         DI,DI                                   
ROM:c800:06d3   8ec7            MOV         ES,DI                                   
ROM:c800:06d5   8bf8            MOV         DI,AX                                   
ROM:c800:06d7   fa              CLI                                                  
ROM:c800:06d8   e421            IN          AL,0x21                                 ;Port 21 is data port of interrupt co...
ROM:c800:06da   24fe            AND         AL,0xfe                                 
ROM:c800:06dc   eb00            JMP         LAB_c800_06de                           
                            LAB_c800_06de:                ;XREF[1,0]:   c800:06dc
ROM:c800:06de   e621            OUT         0x21,AL                                 
ROM:c800:06e0   a16c04          MOV         AX,[BDA:timer_ticks]                    
ROM:c800:06e3   fb              STI                                                  
                            LAB_c800_06e4:                ;XREF[2,0]:   c800:06e8,c800:06ee
ROM:c800:06e4   3b066c04        CMP         AX,word ptr [BDA:timer_ticks]           
ROM:c800:06e8   74fa            JZ          LAB_c800_06e4                           
ROM:c800:06ea   a16c04          MOV         AX,[BDA:timer_ticks]                    
ROM:c800:06ed   4f              DEC         DI                                      
ROM:c800:06ee   75f4            JNZ         LAB_c800_06e4                           
ROM:c800:06f0   07              POP         ES                                      
ROM:c800:06f1   5f              POP         DI                                      
ROM:c800:06f2   c3              RET                                                  
                            ;************************************************************************************************
                            ;*                                           FUNCTION                                           *
                            ;************************************************************************************************
                            ;undefined llformat_func_02()
                                                          ;XREF[4,0]:   c800:0a3b,c800:0a87,c800:0a92,c800:0c36
ROM:c800:06f3   56              PUSH        SI                                      
                            LAB_c800_06f4:                ;XREF[1,0]:   c800:070c
ROM:c800:06f4   5e              POP         SI                                      
ROM:c800:06f5   56              PUSH        SI                                      
ROM:c800:06f6   e83000          CALL        llformat_func_07                        ;undefined llformat_func_07()
ROM:c800:06f9   24df            AND         AL,0xdf                                 
ROM:c800:06fb   3c59            CMP         AL,0x59                                 
ROM:c800:06fd   740f            JZ          LAB_c800_070e                           
ROM:c800:06ff   3c4e            CMP         AL,0x4e                                 
ROM:c800:0701   7504            JNZ         LAB_c800_0707                           
ROM:c800:0703   3c59            CMP         AL,0x59                                 
ROM:c800:0705   eb07            JMP         LAB_c800_070e                           
                            LAB_c800_0707:                ;XREF[1,0]:   c800:0701
ROM:c800:0707   b007            MOV         AL,0x7                                  ;BEL character
ROM:c800:0709   e85f00          CALL        write_character_to_screen               ;undefined write_character_to_screen()
ROM:c800:070c   ebe6            JMP         LAB_c800_06f4                           
                            LAB_c800_070e:                ;XREF[2,0]:   c800:06fd,c800:0705
ROM:c800:070e   5e              POP         SI                                      
ROM:c800:070f   c3              RET                                                  
                            ;************************************************************************************************
                            ;*                                           FUNCTION                                           *
                            ;************************************************************************************************
                            ;undefined llformat_func_01()
                                                          ;XREF[1,0]:   c800:0a18
ROM:c800:0710   56              PUSH        SI                                      
                            LAB_c800_0711:                ;XREF[1,0]:   c800:0723
ROM:c800:0711   5e              POP         SI                                      
ROM:c800:0712   56              PUSH        SI                                      
ROM:c800:0713   e81300          CALL        llformat_func_07                        ;undefined llformat_func_07()
ROM:c800:0716   3c30            CMP         AL,0x30                                 
ROM:c800:0718   7204            JC          LAB_c800_071e                           
ROM:c800:071a   3c3a            CMP         AL,0x3a                                 
ROM:c800:071c   7207            JC          LAB_c800_0725                           
                            LAB_c800_071e:                ;XREF[1,0]:   c800:0718
ROM:c800:071e   b007            MOV         AL,0x7                                  
ROM:c800:0720   e84800          CALL        write_character_to_screen               ;undefined write_character_to_screen()
ROM:c800:0723   ebec            JMP         LAB_c800_0711                           
                            LAB_c800_0725:                ;XREF[1,0]:   c800:071c
ROM:c800:0725   2c30            SUB         AL,0x30                                 
ROM:c800:0727   5e              POP         SI                                      
ROM:c800:0728   c3              RET                                                  
                            ;************************************************************************************************
                            ;*                                           FUNCTION                                           *
                            ;************************************************************************************************
                            ;undefined llformat_func_07()
                                                          ;XREF[2,0]:   c800:06f6,c800:0713
ROM:c800:0729   56              PUSH        SI                                      
                            LAB_c800_072a:                ;XREF[1,0]:   c800:075e
ROM:c800:072a   5e              POP         SI                                      
ROM:c800:072b   56              PUSH        SI                                      
ROM:c800:072c   e838fe          CALL        display_string_with_coords              ;undefined display_string_with_coords()
                            LAB_c800_072f:                ;XREF[1,0]:   c800:074d
ROM:c800:072f   e8a900          CALL        get_keystroke_with_wait                 ;undefined get_keystroke_with_wait()
ROM:c800:0732   3c0d            CMP         AL,0xd                                  
ROM:c800:0734   7419            JZ          LAB_c800_074f                           
ROM:c800:0736   3c08            CMP         AL,0x8                                  
ROM:c800:0738   7415            JZ          LAB_c800_074f                           
ROM:c800:073a   50              PUSH        AX                                      
ROM:c800:073b   e82d00          CALL        write_character_to_screen               ;undefined write_character_to_screen()
ROM:c800:073e   e89a00          CALL        get_keystroke_with_wait                 ;undefined get_keystroke_with_wait()
ROM:c800:0741   3c0d            CMP         AL,0xd                                  
ROM:c800:0743   741b            JZ          LAB_c800_0760                           
ROM:c800:0745   58              POP         AX                                      
ROM:c800:0746   3c08            CMP         AL,0x8                                  
ROM:c800:0748   7505            JNZ         LAB_c800_074f                           
ROM:c800:074a   e81e00          CALL        write_character_to_screen               ;undefined write_character_to_screen()
ROM:c800:074d   ebe0            JMP         LAB_c800_072f                           
                            LAB_c800_074f:                ;XREF[3,0]:   c800:0734,c800:0738,c800:0748
ROM:c800:074f   b007            MOV         AL,0x7                                  
ROM:c800:0751   e81700          CALL        write_character_to_screen               ;undefined write_character_to_screen()
ROM:c800:0754   b00d            MOV         AL,0xd                                  
ROM:c800:0756   e81200          CALL        write_character_to_screen               ;undefined write_character_to_screen()
ROM:c800:0759   b00a            MOV         AL,0xa                                  
ROM:c800:075b   e80d00          CALL        write_character_to_screen               ;undefined write_character_to_screen()
ROM:c800:075e   ebca            JMP         LAB_c800_072a                           
                            LAB_c800_0760:                ;XREF[1,0]:   c800:0743
ROM:c800:0760   e80800          CALL        write_character_to_screen               ;undefined write_character_to_screen()
ROM:c800:0763   b00a            MOV         AL,0xa                                  
ROM:c800:0765   e80300          CALL        write_character_to_screen               ;undefined write_character_to_screen()
ROM:c800:0768   58              POP         AX                                      
ROM:c800:0769   5e              POP         SI                                      
ROM:c800:076a   c3              RET                                                  
                            ;************************************************************************************************
                            ;*                                           FUNCTION                                           *
                            ;************************************************************************************************
                            ;undefined write_character_to_screen()
                                                          ;XREF[27,0]:  c800:0709,c800:0720,c800:073b,c800:074a
                                                          ;             c800:0751,c800:0756,c800:075b,c800:0760
                                                          ;             c800:0765,c800:0a2f,c800:0bc0,c800:0bc3
                                                          ;             c800:0bc6,c800:0bc9,c800:0c8e,c800:0c93
                                                          ;             c800:0c9e,c800:0cba,c800:0d03,c800:0d08
                                                          ;             c800:0d0d,c800:0d21,c800:0d44,c800:0d4b
                                                          ;             c800:0d50,c800:0d8a,c800:0d94
ROM:c800:076b   50              PUSH        AX                                      
ROM:c800:076c   53              PUSH        BX                                      
ROM:c800:076d   b307            MOV         BL,0x7                                  
ROM:c800:076f   b40e            MOV         AH,0xe                                  
ROM:c800:0771   55              PUSH        BP                                      
ROM:c800:0772   cd10            INT         0x10                                    ;Write character, color 7
ROM:c800:0774   5d              POP         BP                                      
ROM:c800:0775   5b              POP         BX                                      
ROM:c800:0776   58              POP         AX                                      
ROM:c800:0777   c3              RET                                                  
                            ;************************************************************************************************
                            ;*                                           FUNCTION                                           *
                            ;************************************************************************************************
                            ;undefined write_decimal_number_to_screen()
                                                          ;XREF[7,0]:   c800:0786,c800:0b18,c800:0b29,c800:0ba0
                                                          ;             c800:0bda,c800:0bed,c800:0d5a
ROM:c800:0778   52              PUSH        DX                                      
ROM:c800:0779   51              PUSH        CX                                      
ROM:c800:077a   33d2            XOR         DX,DX                                   
ROM:c800:077c   b90a00          MOV         CX,0xa                                  
ROM:c800:077f   f7f1            DIV         CX                                      
ROM:c800:0781   0bc0            OR          AX,AX                                   
ROM:c800:0783   7405            JZ          is_least_significant_digit              
ROM:c800:0785   52              PUSH        DX                                      
ROM:c800:0786   e8efff          CALL        write_decimal_number_to_screen          ;undefined write_decimal_number_to_sc...
ROM:c800:0789   5a              POP         DX                                      
                            is_least_significant_digit:   ;XREF[1,0]:   c800:0783
ROM:c800:078a   8bc2            MOV         AX,DX                                   
ROM:c800:078c   e80300          CALL        write_hex_digit_to_screen               ;undefined write_hex_digit_to_screen()
ROM:c800:078f   59              POP         CX                                      
ROM:c800:0790   5a              POP         DX                                      
ROM:c800:0791   c3              RET                                                  
                            ;************************************************************************************************
                            ;*                                           FUNCTION                                           *
                            ;************************************************************************************************
                            ;undefined write_hex_digit_to_screen()
                                                          ;XREF[1,0]:   c800:078c
ROM:c800:0792   240f            AND         AL,0xf                                  
ROM:c800:0794   0430            ADD         AL,0x30                                 
ROM:c800:0796   3c39            CMP         AL,0x39                                 
ROM:c800:0798   7602            JBE         is_letter                               
ROM:c800:079a   0407            ADD         AL,0x7                                  
                            is_letter:                    ;XREF[1,0]:   c800:0798
ROM:c800:079c   e80100          CALL        write_character_to_screen_alt           ;undefined write_character_to_screen_...
ROM:c800:079f   c3              RET                                                  
                            ;************************************************************************************************
                            ;*                                           FUNCTION                                           *
                            ;************************************************************************************************
                            ;undefined write_character_to_screen_alt()
                                                          ;XREF[1,0]:   c800:079c
ROM:c800:07a0   56              PUSH        SI                                      
ROM:c800:07a1   57              PUSH        DI                                      
ROM:c800:07a2   55              PUSH        BP                                      
ROM:c800:07a3   51              PUSH        CX                                      
ROM:c800:07a4   53              PUSH        BX                                      
ROM:c800:07a5   50              PUSH        AX                                      
ROM:c800:07a6   b40e            MOV         AH,0xe                                  
ROM:c800:07a8   bb0000          MOV         BX,0x0                                  
ROM:c800:07ab   55              PUSH        BP                                      
ROM:c800:07ac   cd10            INT         0x10                                    
ROM:c800:07ae   5d              POP         BP                                      
ROM:c800:07af   58              POP         AX                                      
ROM:c800:07b0   5b              POP         BX                                      
ROM:c800:07b1   59              POP         CX                                      
ROM:c800:07b2   5d              POP         BP                                      
ROM:c800:07b3   5f              POP         DI                                      
ROM:c800:07b4   5e              POP         SI                                      
ROM:c800:07b5   c3              RET                                                  
                            ;************************************************************************************************
                            ;*                                           FUNCTION                                           *
                            ;************************************************************************************************
                            ;undefined clear_screen()
                                                          ;XREF[1,0]:   c800:09fd
ROM:c800:07b6   52              PUSH        DX                                      
ROM:c800:07b7   b402            MOV         AH,0x2                                  
ROM:c800:07b9   b700            MOV         BH,0x0                                  
ROM:c800:07bb   33d2            XOR         DX,DX                                   
ROM:c800:07bd   55              PUSH        BP                                      
ROM:c800:07be   cd10            INT         0x10                                    ;Set cursor position to 0,0
ROM:c800:07c0   5d              POP         BP                                      
ROM:c800:07c1   b80006          MOV         AX,0x600                                
ROM:c800:07c4   b707            MOV         BH,0x7                                  
ROM:c800:07c6   33c9            XOR         CX,CX                                   
ROM:c800:07c8   ba4f18          MOV         DX,0x184f                               
ROM:c800:07cb   55              PUSH        BP                                      
ROM:c800:07cc   cd10            INT         0x10                                    ;Scroll 0 lines? All lines?
ROM:c800:07ce   5d              POP         BP                                      
ROM:c800:07cf   b402            MOV         AH,0x2                                  
ROM:c800:07d1   b700            MOV         BH,0x0                                  
ROM:c800:07d3   33d2            XOR         DX,DX                                   
ROM:c800:07d5   55              PUSH        BP                                      
ROM:c800:07d6   cd10            INT         0x10                                    ;Set cursor to position 0,0
ROM:c800:07d8   5d              POP         BP                                      
ROM:c800:07d9   5a              POP         DX                                      
ROM:c800:07da   c3              RET                                                  
                            ;************************************************************************************************
                            ;*                                           FUNCTION                                           *
                            ;************************************************************************************************
                            ;undefined get_keystroke_with_wait()
                                                          ;XREF[6,0]:   c800:04ff,c800:072f,c800:073e,c800:07fc
                                                          ;             c800:0c75,c800:0cc7
ROM:c800:07db   52              PUSH        DX                                      
ROM:c800:07dc   53              PUSH        BX                                      
ROM:c800:07dd   51              PUSH        CX                                      
ROM:c800:07de   56              PUSH        SI                                      
ROM:c800:07df   57              PUSH        DI                                      
ROM:c800:07e0   55              PUSH        BP                                      
ROM:c800:07e1   1e              PUSH        DS                                      
ROM:c800:07e2   06              PUSH        ES                                      
ROM:c800:07e3   b400            MOV         AH,0x0                                  
ROM:c800:07e5   cd16            INT         0x16                                    
ROM:c800:07e7   07              POP         ES                                      
ROM:c800:07e8   1f              POP         DS                                      
ROM:c800:07e9   5d              POP         BP                                      
ROM:c800:07ea   5f              POP         DI                                      
ROM:c800:07eb   5e              POP         SI                                      
ROM:c800:07ec   59              POP         CX                                      
ROM:c800:07ed   5b              POP         BX                                      
ROM:c800:07ee   5a              POP         DX                                      
ROM:c800:07ef   c3              RET                                                  
                            ;************************************************************************************************
                            ;*                                           FUNCTION                                           *
                            ;************************************************************************************************
                            ;undefined unreferenced_function_01()
ROM:c800:07f0   be440e          MOV         SI,string_invalid_bios_entry            ;= 17h
ROM:c800:07f3   e880fd          CALL        display_string_with_length              ;undefined display_string_with_length()
ROM:c800:07f6   be5c0e          MOV         SI,string_reboot_system_prompt          ;= 25h    %
ROM:c800:07f9   e87afd          CALL        display_string_with_length              ;undefined display_string_with_length()
ROM:c800:07fc   e8dcff          CALL        get_keystroke_with_wait                 ;undefined get_keystroke_with_wait()
ROM:c800:07ff   bb0508          MOV         BX,LAB_c800_0805                        
ROM:c800:0802   2eff2f          JMPF        CS:[BX]=>DAT_c000_0805                  
                            LAB_c800_0805:                ;XREF[1,0]:   c800:07ff
ROM:c800:0805   f0              LOCK                                                 ;Does this intentionally
                                                                                    ;hang the cpu?
ROM:c800:0806   ff00            INC         word ptr [BX + SI]                      
ROM:c800:0808   f0              LOCK                                                 
                            ;************************************************************************************************
                            ;*                                           FUNCTION                                           *
                            ;************************************************************************************************
                            ;undefined unreferenced_function_00()
ROM:c800:0809   06              PUSH        ES                                      
ROM:c800:080a   33c0            XOR         AX,AX                                   
ROM:c800:080c   8ec0            MOV         ES,AX                                   
ROM:c800:080e   f6067604c0      TEST        byte ptr [BDA:fd_control_byte],0xc0     
ROM:c800:0813   7405            JZ          LAB_c800_081a                           
ROM:c800:0815   c606470480      MOV         byte ptr [BDA:fd_cmd_flags],0x80        
                            LAB_c800_081a:                ;XREF[1,0]:   c800:0813
ROM:c800:081a   07              POP         ES                                      
ROM:c800:081b   c3              RET                                                  
                            ;************************************************************************************************
                            ;*                                           FUNCTION                                           *
                            ;************************************************************************************************
                            ;undefined FUN_c800_081c()
                                                          ;XREF[3,0]:   c800:030a,c800:03bb,c800:03ce
ROM:c800:081c   50              PUSH        AX                                      
ROM:c800:081d   e871fd          CALL        FUN_c800_0591                           ;undefined FUN_c800_0591()
ROM:c800:0820   7309            JNC         LAB_c800_082b                           
ROM:c800:0822   83c402          ADD         SP,0x2                                  
ROM:c800:0825   b409            MOV         AH,0x9                                  
ROM:c800:0827   f9              STC                                                  
ROM:c800:0828   e965fe          JMP         FUN_c800_0690                           ;undefined FUN_c800_0690()
                            LAB_c800_082b:                ;XREF[1,0]:   c800:0820
ROM:c800:082b   e82e00          CALL        start_command                           ;undefined start_command()
ROM:c800:082e   7211            JC          LAB_c800_0841                           
ROM:c800:0830   e89400          CALL        FUN_c800_08c7                           ;undefined FUN_c800_08c7()
ROM:c800:0833   e85100          CALL        write_command_block                     ;undefined write_command_block()
ROM:c800:0836   58              POP         AX                                      
ROM:c800:0837   e86f00          CALL        wait_for_drive_status_command           ;undefined wait_for_drive_status_comm...
ROM:c800:083a   e80b01          CALL        FUN_c800_0948                           ;undefined FUN_c800_0948()
ROM:c800:083d   e81801          CALL        not_sure                                ;undefined not_sure()
ROM:c800:0840   c3              RET                                                  
                            LAB_c800_0841:                ;XREF[1,0]:   c800:082e
ROM:c800:0841   83c402          ADD         SP,0x2                                  
ROM:c800:0844   f9              STC                                                  
ROM:c800:0845   c3              RET                                                  
                            ;************************************************************************************************
                            ;*                                           FUNCTION                                           *
                            ;************************************************************************************************
                            ;undefined see_if_drive_ready()
                                                          ;XREF[9,0]:   c800:00b9,c800:029d,c800:02c5,c800:0342
                                                          ;             c800:03f9,c800:0454,c800:0466,c800:0478
                                                          ;             c800:048f
ROM:c800:0846   50              PUSH        AX                                      
ROM:c800:0847   e81200          CALL        start_command                           ;undefined start_command()
ROM:c800:084a   720b            JC          exit                                    
ROM:c800:084c   e83800          CALL        write_command_block                     ;undefined write_command_block()
ROM:c800:084f   58              POP         AX                                      
ROM:c800:0850   e85600          CALL        wait_for_drive_status_command           ;undefined wait_for_drive_status_comm...
ROM:c800:0853   e80201          CALL        not_sure                                ;undefined not_sure()
ROM:c800:0856   c3              RET                                                  
                            exit:                         ;XREF[1,0]:   c800:084a
ROM:c800:0857   83c402          ADD         SP,0x2                                  
ROM:c800:085a   f9              STC                                                  
ROM:c800:085b   c3              RET                                                  
                            ;************************************************************************************************
                            ;*                                           FUNCTION                                           *
                            ;************************************************************************************************
                            ;undefined start_command()
                                                          ;XREF[3,0]:   c800:082b,c800:0847,c800:0986
ROM:c800:085c   52              PUSH        DX                                      
ROM:c800:085d   50              PUSH        AX                                      
ROM:c800:085e   8b5600          MOV         DX,word ptr [BP + 0x0]                  
ROM:c800:0861   42              INC         DX                                      
ROM:c800:0862   42              INC         DX                                      
ROM:c800:0863   ee              OUT         DX,AL                                   ;Write to select port (begins command...
ROM:c800:0864   4a              DEC         DX                                      
ROM:c800:0865   a04204          MOV         AL,[BDA:fd_cmd_opcode]                  ;[442] is the first byte of the comma...
ROM:c800:0868   3c00            CMP         AL,0x0                                  ;Opcode 0 is test-drive-ready.
ROM:c800:086a   7504            JNZ         not_test_drive_ready                    
ROM:c800:086c   58              POP         AX                                      ;Use timeout already in AX register
ROM:c800:086d   eb05            JMP         is_test_drive_ready                     
ROM:c800:086f   90              NOP                                                  
                            not_test_drive_ready:         ;XREF[1,0]:   c800:086a
ROM:c800:0870   58              POP         AX                                      
ROM:c800:0871   b82600          MOV         AX,0x26                                 ;Approx 2 seconds
                            is_test_drive_ready:          ;XREF[1,0]:   c800:086d
ROM:c800:0874   b30d            MOV         BL,0xd                                  ;~IRQ/~DRQ/BSY/DATA/OUTPUT/REQ
ROM:c800:0876   e81cfe          CALL        wait_for_status_with_timeout            ;undefined wait_for_status_with_timeo...
ROM:c800:0879   7304            JNC         no_error                                
ROM:c800:087b   b484            MOV         AH,0x84                                 ;Timeout?
ROM:c800:087d   eb02            JMP         set_status_and_exit                     
                            no_error:                     ;XREF[1,0]:   c800:0879
ROM:c800:087f   33c0            XOR         AX,AX                                   
                            set_status_and_exit:          ;XREF[1,0]:   c800:087d
ROM:c800:0881   88267404        MOV         byte ptr [BDA:fd_last_op_status],AH     
ROM:c800:0885   5a              POP         DX                                      
ROM:c800:0886   c3              RET                                                  
                            ;************************************************************************************************
                            ;*                                           FUNCTION                                           *
                            ;************************************************************************************************
                            ;undefined write_command_block()
                                                          ;XREF[3,0]:   c800:0833,c800:084c,c800:098b
ROM:c800:0887   57              PUSH        DI                                      
ROM:c800:0888   52              PUSH        DX                                      
ROM:c800:0889   bf4204          MOV         DI,BDA:fd_cmd_opcode                    ;Writes 6 bytes starting at [442] to ...
ROM:c800:088c   8b5600          MOV         DX,word ptr [BP + 0x0]                  
ROM:c800:088f   8a05            MOV         AL,byte ptr [DI]                        
ROM:c800:0891   47              INC         DI                                      
ROM:c800:0892   ee              OUT         DX,AL                                   
ROM:c800:0893   8a05            MOV         AL,byte ptr [DI]                        
ROM:c800:0895   47              INC         DI                                      
ROM:c800:0896   ee              OUT         DX,AL                                   
ROM:c800:0897   8a05            MOV         AL,byte ptr [DI]                        
ROM:c800:0899   47              INC         DI                                      
ROM:c800:089a   ee              OUT         DX,AL                                   
ROM:c800:089b   8a05            MOV         AL,byte ptr [DI]                        
ROM:c800:089d   47              INC         DI                                      
ROM:c800:089e   ee              OUT         DX,AL                                   
ROM:c800:089f   8a05            MOV         AL,byte ptr [DI]                        
ROM:c800:08a1   47              INC         DI                                      
ROM:c800:08a2   ee              OUT         DX,AL                                   
ROM:c800:08a3   8a05            MOV         AL,byte ptr [DI]                        
ROM:c800:08a5   ee              OUT         DX,AL                                   
ROM:c800:08a6   5a              POP         DX                                      
ROM:c800:08a7   5f              POP         DI                                      
ROM:c800:08a8   c3              RET                                                  
                            ;************************************************************************************************
                            ;*                                           FUNCTION                                           *
                            ;************************************************************************************************
                            ;undefined wait_for_drive_status_command()
                                                          ;XREF[2,0]:   c800:0837,c800:0850
ROM:c800:08a9   52              PUSH        DX                                      
ROM:c800:08aa   8b5600          MOV         DX,word ptr [BP + 0x0]                  
ROM:c800:08ad   52              PUSH        DX                                      
ROM:c800:08ae   42              INC         DX                                      
ROM:c800:08af   b30f            MOV         BL,0xf                                  ;~IRQ/~DRQ/BSY/DATA/INPUT/REQ
ROM:c800:08b1   e8e1fd          CALL        wait_for_status_with_timeout            ;undefined wait_for_status_with_timeo...
ROM:c800:08b4   5a              POP         DX                                      
ROM:c800:08b5   7307            JNC         status_good                             
ROM:c800:08b7   e865fc          CALL        write_reset_port                        ;undefined write_reset_port()
ROM:c800:08ba   b486            MOV         AH,0x86                                 ;Timeout?
ROM:c800:08bc   eb03            JMP         set_status_and_exit                     
                            status_good:                  ;XREF[1,0]:   c800:08b5
ROM:c800:08be   ec              IN          AL,DX                                   ;Read drive status from drive data port
ROM:c800:08bf   86e0            XCHG        AL,AH                                   
                            set_status_and_exit:          ;XREF[1,0]:   c800:08bc
ROM:c800:08c1   88267404        MOV         byte ptr [BDA:fd_last_op_status],AH     
ROM:c800:08c5   5a              POP         DX                                      
ROM:c800:08c6   c3              RET                                                  
                            ;************************************************************************************************
                            ;*                                           FUNCTION                                           *
                            ;************************************************************************************************
                            ;undefined FUN_c800_08c7()
                                                          ;XREF[1,0]:   c800:0830
ROM:c800:08c7   52              PUSH        DX                                      
ROM:c800:08c8   53              PUSH        BX                                      
ROM:c800:08c9   e60c            OUT         0xc,AL                                  
ROM:c800:08cb   b047            MOV         AL,0x47                                 
ROM:c800:08cd   2ef684150201    TEST        byte ptr CS:[SI + 0x215],0x1            
ROM:c800:08d3   7402            JZ          LAB_c800_08d7                           
ROM:c800:08d5   b04b            MOV         AL,0x4b                                 
                            LAB_c800_08d7:                ;XREF[1,0]:   c800:08d3
ROM:c800:08d7   e60b            OUT         0xb,AL                                  
ROM:c800:08d9   8b4612          MOV         AX,word ptr [BP + 0x12]                 
ROM:c800:08dc   d1c0            ROL         AX                                      
ROM:c800:08de   d1c0            ROL         AX                                      
ROM:c800:08e0   d1c0            ROL         AX                                      
ROM:c800:08e2   d1c0            ROL         AX                                      
ROM:c800:08e4   8bd0            MOV         DX,AX                                   
ROM:c800:08e6   25f0ff          AND         AX,0xfff0                               
ROM:c800:08e9   83e20f          AND         DX,0xf                                  
ROM:c800:08ec   8b5e0a          MOV         BX,word ptr [BP + 0xa]                  
ROM:c800:08ef   03c3            ADD         AX,BX                                   
ROM:c800:08f1   83d200          ADC         DX,0x0                                  
ROM:c800:08f4   e606            OUT         0x6,AL                                  
ROM:c800:08f6   eb00            JMP         LAB_c800_08f8                           
                            LAB_c800_08f8:                ;XREF[1,0]:   c800:08f6
ROM:c800:08f8   eb00            JMP         LAB_c800_08fa                           
                            LAB_c800_08fa:                ;XREF[1,0]:   c800:08f8
ROM:c800:08fa   8ac4            MOV         AL,AH                                   
ROM:c800:08fc   e606            OUT         0x6,AL                                  
ROM:c800:08fe   8bc2            MOV         AX,DX                                   
ROM:c800:0900   e682            OUT         0x82,AL                                 
ROM:c800:0902   b80002          MOV         AX,0x200                                
ROM:c800:0905   803e4204e5      CMP         byte ptr [0x442],0xe5                   
ROM:c800:090a   7407            JZ          LAB_c800_0913                           
ROM:c800:090c   803e4204e6      CMP         byte ptr [0x442],0xe6                   
ROM:c800:0911   7503            JNZ         LAB_c800_0916                           
                            LAB_c800_0913:                ;XREF[1,0]:   c800:090a
ROM:c800:0913   b80402          MOV         AX,0x204                                
                            LAB_c800_0916:                ;XREF[1,0]:   c800:0911
ROM:c800:0916   8b5e0c          MOV         BX,word ptr [BP + 0xc]                  
ROM:c800:0919   803e42040f      CMP         byte ptr [0x442],0xf                    
ROM:c800:091e   7407            JZ          LAB_c800_0927                           
ROM:c800:0920   803e42040e      CMP         byte ptr [0x442],0xe                    
ROM:c800:0925   7502            JNZ         LAB_c800_0929                           
                            LAB_c800_0927:                ;XREF[1,0]:   c800:091e
ROM:c800:0927   b301            MOV         BL,0x1                                  
                            LAB_c800_0929:                ;XREF[1,0]:   c800:0925
ROM:c800:0929   32ff            XOR         BH,BH                                   
ROM:c800:092b   f7e3            MUL         BX                                      
ROM:c800:092d   48              DEC         AX                                      
ROM:c800:092e   e607            OUT         0x7,AL                                  
ROM:c800:0930   eb00            JMP         LAB_c800_0932                           
                            LAB_c800_0932:                ;XREF[1,0]:   c800:0930
ROM:c800:0932   eb00            JMP         LAB_c800_0934                           
                            LAB_c800_0934:                ;XREF[1,0]:   c800:0932
ROM:c800:0934   8ac4            MOV         AL,AH                                   
ROM:c800:0936   e607            OUT         0x7,AL                                  
ROM:c800:0938   8b5600          MOV         DX,word ptr [BP + 0x0]                  
ROM:c800:093b   83c203          ADD         DX,0x3                                  
ROM:c800:093e   b001            MOV         AL,0x1                                  
ROM:c800:0940   ee              OUT         DX,AL                                   
ROM:c800:0941   b003            MOV         AL,0x3                                  
ROM:c800:0943   e60a            OUT         0xa,AL                                  
ROM:c800:0945   5b              POP         BX                                      
ROM:c800:0946   5a              POP         DX                                      
ROM:c800:0947   c3              RET                                                  
                            ;************************************************************************************************
                            ;*                                           FUNCTION                                           *
                            ;************************************************************************************************
                            ;undefined FUN_c800_0948()
                                                          ;XREF[1,0]:   c800:083a
ROM:c800:0948   52              PUSH        DX                                      
ROM:c800:0949   8b5600          MOV         DX,word ptr [BP + 0x0]                  
ROM:c800:094c   83c203          ADD         DX,0x3                                  
ROM:c800:094f   33c0            XOR         AX,AX                                   
ROM:c800:0951   ee              OUT         DX,AL                                   
ROM:c800:0952   b007            MOV         AL,0x7                                  
ROM:c800:0954   e60a            OUT         0xa,AL                                  
ROM:c800:0956   5a              POP         DX                                      
ROM:c800:0957   c3              RET                                                  
                            ;************************************************************************************************
                            ;*                                           FUNCTION                                           *
                            ;************************************************************************************************
                            ;undefined not_sure()
                                                          ;XREF[2,0]:   c800:083d,c800:0853
ROM:c800:0958   57              PUSH        DI                                      
ROM:c800:0959   8a267404        MOV         AH,byte ptr [BDA:fd_last_op_status]     
ROM:c800:095d   0ae4            OR          AH,AH                                   
ROM:c800:095f   741e            JZ          exit                                    
ROM:c800:0961   80fc02          CMP         AH,0x2                                  
ROM:c800:0964   7519            JNZ         exit                                    
ROM:c800:0966   e8c0fb          CALL        set_interface_paramters                 ;undefined set_interface_paramters()
ROM:c800:0969   c606420403      MOV         byte ptr [BDA:fd_cmd_opcode],0x3        ;Read status of last operation
ROM:c800:096e   b82600          MOV         AX,0x26                                 
ROM:c800:0971   b104            MOV         CL,0x4                                  
ROM:c800:0973   b500            MOV         CH,0x0                                  
ROM:c800:0975   e80d00          CALL        write_command_and_data                  ;undefined write_command_and_data()
ROM:c800:0978   7305            JNC         exit                                    
ROM:c800:097a   b488            MOV         AH,0x88                                 ;had an error?
ROM:c800:097c   e8a0fb          CALL        write_reset_port                        ;undefined write_reset_port()
                            exit:                         ;XREF[3,0]:   c800:095f,c800:0964,c800:0978
ROM:c800:097f   88267404        MOV         byte ptr [BDA:fd_last_op_status],AH     
ROM:c800:0983   5f              POP         DI                                      
ROM:c800:0984   c3              RET                                                  
                            ;************************************************************************************************
                            ;*                                           FUNCTION                                           *
                            ;************************************************************************************************
                            ;undefined write_command_and_data()
                                                          ;XREF[1,0]:   c800:0975
ROM:c800:0985   50              PUSH        AX                                      ;Interface address has been set in [B...
ROM:c800:0986   e8d3fe          CALL        start_command                           ;undefined start_command()
ROM:c800:0989   7261            JC          LAB_c800_09ec                           
ROM:c800:098b   e8f9fe          CALL        write_command_block                     ;undefined write_command_block()
ROM:c800:098e   b82600          MOV         AX,0x26                                 
ROM:c800:0991   8b5600          MOV         DX,word ptr [BP + 0x0]                  
ROM:c800:0994   83c201          ADD         DX,0x1                                  ;DX is 321 or 325 (Status/Reset port)
ROM:c800:0997   b30b            MOV         BL,0xb                                  
ROM:c800:0999   0aed            OR          CH,CH                                   
ROM:c800:099b   7417            JZ          size_small                              
ROM:c800:099d   b309            MOV         BL,0x9                                  
ROM:c800:099f   e8f3fc          CALL        wait_for_status_with_timeout            ;undefined wait_for_status_with_timeo...
ROM:c800:09a2   b486            MOV         AH,0x86                                 
ROM:c800:09a4   7246            JC          LAB_c800_09ec                           
ROM:c800:09a6   8b5600          MOV         DX,word ptr [BP + 0x0]                  ;DX is 320 or 324 (data port)
ROM:c800:09a9   32ed            XOR         CH,CH                                   
                            write_loop:                   ;XREF[1,0]:   c800:09b0
ROM:c800:09ab   368a07          MOV         AL,byte ptr SS:[BX]                     ;Looks like this writes 256 bytes on ...
ROM:c800:09ae   ee              OUT         DX,AL                                   
ROM:c800:09af   43              INC         BX                                      
ROM:c800:09b0   e2f9            LOOP        write_loop                              
ROM:c800:09b2   eb16            JMP         LAB_c800_09ca                           
                            size_small:                   ;XREF[1,0]:   c800:099b
ROM:c800:09b4   e8defc          CALL        wait_for_status_with_timeout            ;undefined wait_for_status_with_timeo...
ROM:c800:09b7   b486            MOV         AH,0x86                                 
ROM:c800:09b9   7231            JC          LAB_c800_09ec                           
ROM:c800:09bb   8b5600          MOV         DX,word ptr [BP + 0x0]                  
ROM:c800:09be   ec              IN          AL,DX                                   
ROM:c800:09bf   243f            AND         AL,0x3f                                 
ROM:c800:09c1   32e4            XOR         AH,AH                                   
ROM:c800:09c3   894604          MOV         word ptr [BP + 0x4],AX                  
ROM:c800:09c6   49              DEC         CX                                      
                            LAB_c800_09c7:                ;XREF[1,0]:   c800:09c8
ROM:c800:09c7   ec              IN          AL,DX                                   
ROM:c800:09c8   e2fd            LOOP        LAB_c800_09c7                           
                            LAB_c800_09ca:                ;XREF[1,0]:   c800:09b2
ROM:c800:09ca   58              POP         AX                                      
ROM:c800:09cb   8b5600          MOV         DX,word ptr [BP + 0x0]                  
ROM:c800:09ce   83c201          ADD         DX,0x1                                  
ROM:c800:09d1   b30f            MOV         BL,0xf                                  
ROM:c800:09d3   e8bffc          CALL        wait_for_status_with_timeout            ;undefined wait_for_status_with_timeo...
ROM:c800:09d6   b486            MOV         AH,0x86                                 
ROM:c800:09d8   7208            JC          LAB_c800_09e2                           
ROM:c800:09da   8b5600          MOV         DX,word ptr [BP + 0x0]                  
ROM:c800:09dd   ec              IN          AL,DX                                   
ROM:c800:09de   3c02            CMP         AL,0x2                                  
ROM:c800:09e0   7502            JNZ         LAB_c800_09e4                           
                            LAB_c800_09e2:                ;XREF[1,0]:   c800:09d8
ROM:c800:09e2   f9              STC                                                  
ROM:c800:09e3   c3              RET                                                  
                            LAB_c800_09e4:                ;XREF[1,0]:   c800:09e0
ROM:c800:09e4   33c0            XOR         AX,AX                                   
ROM:c800:09e6   88267404        MOV         byte ptr [BDA:fd_last_op_status],AH     
ROM:c800:09ea   f8              CLC                                                  
ROM:c800:09eb   c3              RET                                                  
                            LAB_c800_09ec:                ;XREF[3,0]:   c800:0989,c800:09a4,c800:09b9
ROM:c800:09ec   83c402          ADD         SP,0x2                                  
ROM:c800:09ef   f9              STC                                                  
ROM:c800:09f0   c3              RET                                                  
                            low_level_format_utility:     ;XREF[2,0]:   Entry Point,c800:000a
ROM:c800:09f1   1e              PUSH        DS                                      
ROM:c800:09f2   56              PUSH        SI                                      
ROM:c800:09f3   55              PUSH        BP                                      
ROM:c800:09f4   83ec06          SUB         SP,0x6                                  
ROM:c800:09f7   8bec            MOV         BP,SP                                   
ROM:c800:09f9   33f6            XOR         SI,SI                                   
ROM:c800:09fb   8ede            MOV         DS,SI                                   
ROM:c800:09fd   e8b6fd          CALL        clear_screen                            ;undefined clear_screen()
ROM:c800:0a00   ba0402          MOV         DX,0x204                                
ROM:c800:0a03   e83103          CALL        write_horizontal_separator_line_to_sc...;undefined write_horizontal_separator...
ROM:c800:0a06   ba0416          MOV         DX,0x1604                               
ROM:c800:0a09   e82b03          CALL        write_horizontal_separator_line_to_sc...;undefined write_horizontal_separator...
ROM:c800:0a0c   beb40e          MOV         SI,string_product_name                  ;= 0Fh
ROM:c800:0a0f   e855fb          CALL        display_string_with_coords              ;undefined display_string_with_coords()
                            LAB_c800_0a12:                ;XREF[1,0]:   c800:0a3e
ROM:c800:0a12   e84a03          CALL        llformat_func_00                        ;undefined llformat_func_00()
ROM:c800:0a15   bee60e          MOV         SI,0xee6                                
ROM:c800:0a18   e8f5fc          CALL        llformat_func_01                        ;undefined llformat_func_01()
ROM:c800:0a1b   fec0            INC         AL                                      
ROM:c800:0a1d   3a067504        CMP         AL,byte ptr [BDA:fd_num_drives]         
ROM:c800:0a21   7624            JBE         LAB_c800_0a47                           
ROM:c800:0a23   fec8            DEC         AL                                      
ROM:c800:0a25   50              PUSH        AX                                      
ROM:c800:0a26   be180f          MOV         SI,string_drive                         ;= 10h
ROM:c800:0a29   e83bfb          CALL        display_string_with_coords              ;undefined display_string_with_coords()
ROM:c800:0a2c   58              POP         AX                                      
ROM:c800:0a2d   0430            ADD         AL,0x30                                 ;Display '0' or '1'
ROM:c800:0a2f   e839fd          CALL        write_character_to_screen               ;undefined write_character_to_screen()
ROM:c800:0a32   be210f          MOV         SI,string_not_ready_or_present          ;= 18h
ROM:c800:0a35   e82ffb          CALL        display_string_with_coords              ;undefined display_string_with_coords()
ROM:c800:0a38   beba0f          MOV         SI,0xfba                                
ROM:c800:0a3b   e8b5fc          CALL        llformat_func_02                        ;undefined llformat_func_02()
ROM:c800:0a3e   75d2            JNZ         LAB_c800_0a12                           
                            exit_to_debugger:             ;XREF[6,0]:   c800:0a98,c800:0ac7,c800:0adf,c800:0b72
                                                          ;             c800:0b84,c800:0c5f
ROM:c800:0a40   83c406          ADD         SP,0x6                                  
ROM:c800:0a43   5d              POP         BP                                      
ROM:c800:0a44   5e              POP         SI                                      
ROM:c800:0a45   1f              POP         DS                                      
ROM:c800:0a46   cc              INT3                                                 
                            LAB_c800_0a47:                ;XREF[1,0]:   c800:0a21
ROM:c800:0a47   fec8            DEC         AL                                      
ROM:c800:0a49   8ad0            MOV         DL,AL                                   
ROM:c800:0a4b   885603          MOV         byte ptr [BP + 0x3],DL                  
ROM:c800:0a4e   e80e03          CALL        llformat_func_00                        ;undefined llformat_func_00()
ROM:c800:0a51   b004            MOV         AL,0x4                                  
ROM:c800:0a53   32e4            XOR         AH,AH                                   
ROM:c800:0a55   be6a0f          MOV         SI,0xf6a                                
ROM:c800:0a58   e8f902          CALL        llformat_func_04                        ;undefined llformat_func_04()
                            LAB_c800_0a5b:                ;XREF[1,0]:   c800:0a78
ROM:c800:0a5b   be440f          MOV         SI,string_interleave_prompt             ;= 14h
ROM:c800:0a5e   e806fb          CALL        display_string_with_coords              ;undefined display_string_with_coords()
ROM:c800:0a61   b90200          MOV         CX,0x2                                  
ROM:c800:0a64   e85b02          CALL        llformat_func_03                        ;undefined llformat_func_03()
ROM:c800:0a67   3c00            CMP         AL,0x0                                  
ROM:c800:0a69   7604            JBE         LAB_c800_0a6f                           
ROM:c800:0a6b   3c09            CMP         AL,0x9                                  
ROM:c800:0a6d   760b            JBE         LAB_c800_0a7a                           
                            LAB_c800_0a6f:                ;XREF[1,0]:   c800:0a69
ROM:c800:0a6f   e82003          CALL        write_bel                               ;undefined write_bel()
ROM:c800:0a72   ba010c          MOV         DX,0xc01                                
ROM:c800:0a75   e80303          CALL        llformat_func_05                        ;undefined llformat_func_05()
ROM:c800:0a78   ebe1            JMP         LAB_c800_0a5b                           
                            LAB_c800_0a7a:                ;XREF[1,0]:   c800:0a6d
ROM:c800:0a7a   50              PUSH        AX                                      
                            LAB_c800_0a7b:                ;XREF[1,0]:   c800:0a95
ROM:c800:0a7b   e8e102          CALL        llformat_func_00                        ;undefined llformat_func_00()
ROM:c800:0a7e   be1d10          MOV         SI,string_are_you_sure_prompt_start     ;= 11h
ROM:c800:0a81   e8e3fa          CALL        display_string_with_coords              ;undefined display_string_with_coords()
ROM:c800:0a84   be5610          MOV         SI,0x1056                               
ROM:c800:0a87   e869fc          CALL        llformat_func_02                        ;undefined llformat_func_02()
ROM:c800:0a8a   740e            JZ          LAB_c800_0a9a                           
ROM:c800:0a8c   e8d002          CALL        llformat_func_00                        ;undefined llformat_func_00()
ROM:c800:0a8f   beba0f          MOV         SI,0xfba                                
ROM:c800:0a92   e85efc          CALL        llformat_func_02                        ;undefined llformat_func_02()
ROM:c800:0a95   75e4            JNZ         LAB_c800_0a7b                           
ROM:c800:0a97   58              POP         AX                                      
ROM:c800:0a98   eba6            JMP         exit_to_debugger                        
                            LAB_c800_0a9a:                ;XREF[1,0]:   c800:0a8a
ROM:c800:0a9a   e8c202          CALL        llformat_func_00                        ;undefined llformat_func_00()
ROM:c800:0a9d   bef50f          MOV         SI,string_formatting_drive              ;= 14h
ROM:c800:0aa0   e8c4fa          CALL        display_string_with_coords              ;undefined display_string_with_coords()
ROM:c800:0aa3   e8f202          CALL        llformat_func_06                        ;undefined llformat_func_06()
ROM:c800:0aa6   7304            JNC         LAB_c800_0aac                           
ROM:c800:0aa8   58              POP         AX                                      
ROM:c800:0aa9   eb12            JMP         LAB_c800_0abd                           
ROM:c800:0aab   90              ??          90h                                     
                            LAB_c800_0aac:                ;XREF[1,0]:   c800:0aa6
ROM:c800:0aac   58              POP         AX                                      
ROM:c800:0aad   8a5603          MOV         DL,byte ptr [BP + 0x3]                  
ROM:c800:0ab0   80ca80          OR          DL,0x80                                 
ROM:c800:0ab3   b407            MOV         AH,0x7                                  
ROM:c800:0ab5   32f6            XOR         DH,DH                                   
ROM:c800:0ab7   33c9            XOR         CX,CX                                   
ROM:c800:0ab9   cd13            INT         0x13                                    
ROM:c800:0abb   730d            JNC         LAB_c800_0aca                           
                            LAB_c800_0abd:                ;XREF[1,0]:   c800:0aa9
ROM:c800:0abd   e89f02          CALL        llformat_func_00                        ;undefined llformat_func_00()
ROM:c800:0ac0   befd10          MOV         SI,string_failed_to_format_drive        ;= 19h
ROM:c800:0ac3   e8a1fa          CALL        display_string_with_coords              ;undefined display_string_with_coords()
ROM:c800:0ac6   5a              POP         DX                                      
ROM:c800:0ac7   e976ff          JMP         exit_to_debugger                        
                            LAB_c800_0aca:                ;XREF[1,0]:   c800:0abb
ROM:c800:0aca   8a5603          MOV         DL,byte ptr [BP + 0x3]                  
ROM:c800:0acd   80ca80          OR          DL,0x80                                 
ROM:c800:0ad0   b408            MOV         AH,0x8                                  
ROM:c800:0ad2   cd13            INT         0x13                                    
ROM:c800:0ad4   730c            JNC         LAB_c800_0ae2                           
ROM:c800:0ad6   e88602          CALL        llformat_func_00                        ;undefined llformat_func_00()
ROM:c800:0ad9   bed810          MOV         SI,string_can_not_read_drive_parameters ;= 19h
ROM:c800:0adc   e888fa          CALL        display_string_with_coords              ;undefined display_string_with_coords()
ROM:c800:0adf   e95eff          JMP         exit_to_debugger                        
                            LAB_c800_0ae2:                ;XREF[1,0]:   c800:0ad4
ROM:c800:0ae2   800e7604c0      OR          byte ptr [BDA:fd_control_byte],0xc0     
ROM:c800:0ae7   c6460400        MOV         byte ptr [BP + 0x4],0x0                 
ROM:c800:0aeb   86e9            XCHG        CL,CH                                   
ROM:c800:0aed   8ac5            MOV         AL,CH                                   
ROM:c800:0aef   243f            AND         AL,0x3f                                 
ROM:c800:0af1   50              PUSH        AX                                      
ROM:c800:0af2   80e5c0          AND         CH,0xc0                                 
ROM:c800:0af5   d0c5            ROL         CH,1                                    
ROM:c800:0af7   d0c5            ROL         CH,1                                    
ROM:c800:0af9   894e00          MOV         word ptr [BP + 0x0],CX                  
ROM:c800:0afc   887602          MOV         byte ptr [BP + 0x2],DH                  
ROM:c800:0aff   887605          MOV         byte ptr [BP + 0x5],DH                  
ROM:c800:0b02   be8d10          MOV         SI,string_verifying_cyl_head            ;= 14h
ROM:c800:0b05   e85ffa          CALL        display_string_with_coords              ;undefined display_string_with_coords()
ROM:c800:0b08   ba3414          MOV         DX,0x1434                               
ROM:c800:0b0b   b402            MOV         AH,0x2                                  
ROM:c800:0b0d   b700            MOV         BH,0x0                                  
ROM:c800:0b0f   55              PUSH        BP                                      
ROM:c800:0b10   cd10            INT         0x10                                    
ROM:c800:0b12   5d              POP         BP                                      
ROM:c800:0b13   8a4602          MOV         AL,byte ptr [BP + 0x2]                  
ROM:c800:0b16   32e4            XOR         AH,AH                                   
ROM:c800:0b18   e85dfc          CALL        write_decimal_number_to_screen          ;undefined write_decimal_number_to_sc...
ROM:c800:0b1b   ba2814          MOV         DX,0x1428                               
ROM:c800:0b1e   b402            MOV         AH,0x2                                  
ROM:c800:0b20   b700            MOV         BH,0x0                                  
ROM:c800:0b22   55              PUSH        BP                                      
ROM:c800:0b23   cd10            INT         0x10                                    
ROM:c800:0b25   5d              POP         BP                                      
ROM:c800:0b26   8b4600          MOV         AX,word ptr [BP + 0x0]                  
ROM:c800:0b29   e84cfc          CALL        write_decimal_number_to_screen          ;undefined write_decimal_number_to_sc...
ROM:c800:0b2c   58              POP         AX                                      
ROM:c800:0b2d   b404            MOV         AH,0x4                                  
ROM:c800:0b2f   50              PUSH        AX                                      
ROM:c800:0b30   8a5603          MOV         DL,byte ptr [BP + 0x3]                  
ROM:c800:0b33   80ca80          OR          DL,0x80                                 
ROM:c800:0b36   8a7602          MOV         DH,byte ptr [BP + 0x2]                  
                            LAB_c800_0b39:                ;XREF[2,0]:   c800:0ba3,c800:0bf0
ROM:c800:0b39   8b4600          MOV         AX,word ptr [BP + 0x0]                  
ROM:c800:0b3c   86e0            XCHG        AL,AH                                   
ROM:c800:0b3e   b106            MOV         CL,0x6                                  
ROM:c800:0b40   d2e0            SHL         AL,CL                                   
ROM:c800:0b42   8bc8            MOV         CX,AX                                   
ROM:c800:0b44   fec1            INC         CL                                      
ROM:c800:0b46   58              POP         AX                                      
ROM:c800:0b47   50              PUSH        AX                                      
ROM:c800:0b48   cd13            INT         0x13                                    
ROM:c800:0b4a   7203            JC          LAB_c800_0b4f                           
ROM:c800:0b4c   eb39            JMP         LAB_c800_0b87                           
ROM:c800:0b4e   90              ??          90h                                     
                            LAB_c800_0b4f:                ;XREF[1,0]:   c800:0b4a
ROM:c800:0b4f   8b4600          MOV         AX,word ptr [BP + 0x0]                  
ROM:c800:0b52   86e0            XCHG        AL,AH                                   
ROM:c800:0b54   b106            MOV         CL,0x6                                  
ROM:c800:0b56   d2e0            SHL         AL,CL                                   
ROM:c800:0b58   8bc8            MOV         CX,AX                                   
ROM:c800:0b5a   8a5603          MOV         DL,byte ptr [BP + 0x3]                  
ROM:c800:0b5d   80ca80          OR          DL,0x80                                 
ROM:c800:0b60   8a7602          MOV         DH,byte ptr [BP + 0x2]                  
ROM:c800:0b63   b406            MOV         AH,0x6                                  
ROM:c800:0b65   b004            MOV         AL,0x4                                  
ROM:c800:0b67   cd13            INT         0x13                                    
ROM:c800:0b69   730a            JNC         LAB_c800_0b75                           
ROM:c800:0b6b   58              POP         AX                                      
ROM:c800:0b6c   beb410          MOV         SI,string_failed_to_format_bad_track_a  ;= 19h
ROM:c800:0b6f   e8f5f9          CALL        display_string_with_coords              ;undefined display_string_with_coords()
ROM:c800:0b72   e9cbfe          JMP         exit_to_debugger                        
                            LAB_c800_0b75:                ;XREF[1,0]:   c800:0b69
ROM:c800:0b75   fe4604          INC         byte ptr [BP + 0x4]                     
ROM:c800:0b78   807e0428        CMP         byte ptr [BP + 0x4],0x28                
ROM:c800:0b7c   7609            JBE         LAB_c800_0b87                           
ROM:c800:0b7e   be4311          MOV         SI,string_too_many_bad_tracks           ;= 19h
ROM:c800:0b81   e8e3f9          CALL        display_string_with_coords              ;undefined display_string_with_coords()
ROM:c800:0b84   e9b9fe          JMP         exit_to_debugger                        
                            LAB_c800_0b87:                ;XREF[2,0]:   c800:0b4c,c800:0b7c
ROM:c800:0b87   fe4e02          DEC         byte ptr [BP + 0x2]                     
ROM:c800:0b8a   7819            JS          LAB_c800_0ba5                           
ROM:c800:0b8c   52              PUSH        DX                                      
ROM:c800:0b8d   ba3414          MOV         DX,0x1434                               
ROM:c800:0b90   b402            MOV         AH,0x2                                  
ROM:c800:0b92   b700            MOV         BH,0x0                                  
ROM:c800:0b94   55              PUSH        BP                                      
ROM:c800:0b95   cd10            INT         0x10                                    
ROM:c800:0b97   5d              POP         BP                                      
ROM:c800:0b98   5a              POP         DX                                      
ROM:c800:0b99   8a4602          MOV         AL,byte ptr [BP + 0x2]                  
ROM:c800:0b9c   32e4            XOR         AH,AH                                   
ROM:c800:0b9e   8af0            MOV         DH,AL                                   
ROM:c800:0ba0   e8d5fb          CALL        write_decimal_number_to_screen          ;undefined write_decimal_number_to_sc...
ROM:c800:0ba3   eb94            JMP         LAB_c800_0b39                           
                            LAB_c800_0ba5:                ;XREF[1,0]:   c800:0b8a
ROM:c800:0ba5   8a4605          MOV         AL,byte ptr [BP + 0x5]                  
ROM:c800:0ba8   884602          MOV         byte ptr [BP + 0x2],AL                  
ROM:c800:0bab   8af0            MOV         DH,AL                                   
ROM:c800:0bad   ff4e00          DEC         word ptr [BP + 0x0]                     
ROM:c800:0bb0   7841            JS          LAB_c800_0bf3                           
ROM:c800:0bb2   52              PUSH        DX                                      
ROM:c800:0bb3   ba2814          MOV         DX,0x1428                               
ROM:c800:0bb6   b700            MOV         BH,0x0                                  
ROM:c800:0bb8   b402            MOV         AH,0x2                                  
ROM:c800:0bba   55              PUSH        BP                                      
ROM:c800:0bbb   cd10            INT         0x10                                    
ROM:c800:0bbd   5d              POP         BP                                      
ROM:c800:0bbe   b020            MOV         AL,0x20                                 
ROM:c800:0bc0   e8a8fb          CALL        write_character_to_screen               ;undefined write_character_to_screen()
ROM:c800:0bc3   e8a5fb          CALL        write_character_to_screen               ;undefined write_character_to_screen()
ROM:c800:0bc6   e8a2fb          CALL        write_character_to_screen               ;undefined write_character_to_screen()
ROM:c800:0bc9   e89ffb          CALL        write_character_to_screen               ;undefined write_character_to_screen()
ROM:c800:0bcc   ba2814          MOV         DX,0x1428                               
ROM:c800:0bcf   b700            MOV         BH,0x0                                  
ROM:c800:0bd1   b402            MOV         AH,0x2                                  
ROM:c800:0bd3   55              PUSH        BP                                      
ROM:c800:0bd4   cd10            INT         0x10                                    
ROM:c800:0bd6   5d              POP         BP                                      
ROM:c800:0bd7   8b4600          MOV         AX,word ptr [BP + 0x0]                  
ROM:c800:0bda   e89bfb          CALL        write_decimal_number_to_screen          ;undefined write_decimal_number_to_sc...
ROM:c800:0bdd   ba3414          MOV         DX,0x1434                               
ROM:c800:0be0   b700            MOV         BH,0x0                                  
ROM:c800:0be2   b402            MOV         AH,0x2                                  
ROM:c800:0be4   55              PUSH        BP                                      
ROM:c800:0be5   cd10            INT         0x10                                    
ROM:c800:0be7   5d              POP         BP                                      
ROM:c800:0be8   5a              POP         DX                                      
ROM:c800:0be9   8ac6            MOV         AL,DH                                   
ROM:c800:0beb   32e4            XOR         AH,AH                                   
ROM:c800:0bed   e888fb          CALL        write_decimal_number_to_screen          ;undefined write_decimal_number_to_sc...
ROM:c800:0bf0   e946ff          JMP         LAB_c800_0b39                           
                            LAB_c800_0bf3:                ;XREF[1,0]:   c800:0bb0
ROM:c800:0bf3   58              POP         AX                                      
                            LAB_c800_0bf4:                ;XREF[2,0]:   c800:0c39,c800:0c57
ROM:c800:0bf4   e86801          CALL        llformat_func_00                        ;undefined llformat_func_00()
ROM:c800:0bf7   be5e11          MOV         SI,string_enter_defect_cyl_prompt       ;= 10h
ROM:c800:0bfa   e86af9          CALL        display_string_with_coords              ;undefined display_string_with_coords()
ROM:c800:0bfd   be8711          MOV         SI,string_or_press_enter_to_end         ;= 12h
ROM:c800:0c00   e864f9          CALL        display_string_with_coords              ;undefined display_string_with_coords()
ROM:c800:0c03   b90401          MOV         CX,0x104                                
ROM:c800:0c06   e8b900          CALL        llformat_func_03                        ;undefined llformat_func_03()
ROM:c800:0c09   3c0d            CMP         AL,0xd                                  
ROM:c800:0c0b   7455            JZ          LAB_c800_0c62                           
ROM:c800:0c0d   894600          MOV         word ptr [BP + 0x0],AX                  
ROM:c800:0c10   bea011          MOV         SI,string_enter_defect_head_prompt      ;= 10h
ROM:c800:0c13   e851f9          CALL        display_string_with_coords              ;undefined display_string_with_coords()
ROM:c800:0c16   b90200          MOV         CX,0x2                                  
ROM:c800:0c19   e8a600          CALL        llformat_func_03                        ;undefined llformat_func_03()
ROM:c800:0c1c   884602          MOV         byte ptr [BP + 0x2],AL                  
ROM:c800:0c1f   bec711          MOV         SI,0x11c7                               
ROM:c800:0c22   8b4600          MOV         AX,word ptr [BP + 0x0]                  
ROM:c800:0c25   e82c01          CALL        llformat_func_04                        ;undefined llformat_func_04()
ROM:c800:0c28   bee511          MOV         SI,0x11e5                               
ROM:c800:0c2b   8a4602          MOV         AL,byte ptr [BP + 0x2]                  
ROM:c800:0c2e   32e4            XOR         AH,AH                                   
ROM:c800:0c30   e82101          CALL        llformat_func_04                        ;undefined llformat_func_04()
ROM:c800:0c33   beed11          MOV         SI,0x11ed                               
ROM:c800:0c36   e8bafa          CALL        llformat_func_02                        ;undefined llformat_func_02()
ROM:c800:0c39   75b9            JNZ         LAB_c800_0bf4                           
ROM:c800:0c3b   8b4600          MOV         AX,word ptr [BP + 0x0]                  
ROM:c800:0c3e   86e0            XCHG        AL,AH                                   
ROM:c800:0c40   b106            MOV         CL,0x6                                  
ROM:c800:0c42   d2e0            SHL         AL,CL                                   
ROM:c800:0c44   8bc8            MOV         CX,AX                                   
ROM:c800:0c46   8a5603          MOV         DL,byte ptr [BP + 0x3]                  
ROM:c800:0c49   80ca80          OR          DL,0x80                                 
ROM:c800:0c4c   8a7602          MOV         DH,byte ptr [BP + 0x2]                  
ROM:c800:0c4f   b406            MOV         AH,0x6                                  
ROM:c800:0c51   b004            MOV         AL,0x4                                  
ROM:c800:0c53   cd13            INT         0x13                                    
ROM:c800:0c55   7202            JC          LAB_c800_0c59                           
ROM:c800:0c57   eb9b            JMP         LAB_c800_0bf4                           
                            LAB_c800_0c59:                ;XREF[1,0]:   c800:0c55
ROM:c800:0c59   be1f11          MOV         SI,string_failed_to_format_bad_track_b  ;= 19h
ROM:c800:0c5c   e808f9          CALL        display_string_with_coords              ;undefined display_string_with_coords()
ROM:c800:0c5f   e9defd          JMP         exit_to_debugger                        
                            LAB_c800_0c62:                ;XREF[1,0]:   c800:0c0b
ROM:c800:0c62   e8fa00          CALL        llformat_func_00                        ;undefined llformat_func_00()
ROM:c800:0c65   be0812          MOV         SI,string_after_reboot_message          ;= 11h
ROM:c800:0c68   e8fcf8          CALL        display_string_with_coords              ;undefined display_string_with_coords()
ROM:c800:0c6b   be7612          MOV         SI,string_insert_boot_floppy_prompt     ;= 07h
ROM:c800:0c6e   e8f6f8          CALL        display_string_with_coords              ;undefined display_string_with_coords()
                            loop_forever:                 ;XREF[1,0]:   c800:0c71
ROM:c800:0c71   ebfe            JMP         loop_forever                            
                            ;************************************************************************************************
                            ;*                                           FUNCTION                                           *
                            ;************************************************************************************************
                            ;undefined unreferenced_function_02()
ROM:c800:0c73   52              PUSH        DX                                      
ROM:c800:0c74   51              PUSH        CX                                      
                            LAB_c800_0c75:                ;XREF[4,0]:   c800:0c8c,c800:0ca1,c800:0cab,c800:0cc0
ROM:c800:0c75   e863fb          CALL        get_keystroke_with_wait                 ;undefined get_keystroke_with_wait()
ROM:c800:0c78   3c0d            CMP         AL,0xd                                  
ROM:c800:0c7a   7503            JNZ         LAB_c800_0c7f                           
ROM:c800:0c7c   59              POP         CX                                      
ROM:c800:0c7d   5a              POP         DX                                      
ROM:c800:0c7e   c3              RET                                                  
                            LAB_c800_0c7f:                ;XREF[1,0]:   c800:0c7a
ROM:c800:0c7f   3c08            CMP         AL,0x8                                  
ROM:c800:0c81   7520            JNZ         LAB_c800_0ca3                           
ROM:c800:0c83   5a              POP         DX                                      
ROM:c800:0c84   52              PUSH        DX                                      
ROM:c800:0c85   3ad1            CMP         DL,CL                                   
ROM:c800:0c87   7705            JA          LAB_c800_0c8e                           
ROM:c800:0c89   e80601          CALL        write_bel                               ;undefined write_bel()
ROM:c800:0c8c   ebe7            JMP         LAB_c800_0c75                           
                            LAB_c800_0c8e:                ;XREF[1,0]:   c800:0c87
ROM:c800:0c8e   e8dafa          CALL        write_character_to_screen               ;undefined write_character_to_screen()
ROM:c800:0c91   b020            MOV         AL,0x20                                 
ROM:c800:0c93   e8d5fa          CALL        write_character_to_screen               ;undefined write_character_to_screen()
ROM:c800:0c96   43              INC         BX                                      
ROM:c800:0c97   fec1            INC         CL                                      
ROM:c800:0c99   368807          MOV         byte ptr SS:[BX],AL                     
ROM:c800:0c9c   b008            MOV         AL,0x8                                  
ROM:c800:0c9e   e8cafa          CALL        write_character_to_screen               ;undefined write_character_to_screen()
ROM:c800:0ca1   ebd2            JMP         LAB_c800_0c75                           
                            LAB_c800_0ca3:                ;XREF[1,0]:   c800:0c81
ROM:c800:0ca3   80f900          CMP         CL,0x0                                  
ROM:c800:0ca6   7505            JNZ         LAB_c800_0cad                           
ROM:c800:0ca8   e8e700          CALL        write_bel                               ;undefined write_bel()
ROM:c800:0cab   ebc8            JMP         LAB_c800_0c75                           
                            LAB_c800_0cad:                ;XREF[1,0]:   c800:0ca6
ROM:c800:0cad   3c61            CMP         AL,0x61                                 
ROM:c800:0caf   7206            JC          LAB_c800_0cb7                           
ROM:c800:0cb1   3c7a            CMP         AL,0x7a                                 
ROM:c800:0cb3   7702            JA          LAB_c800_0cb7                           
ROM:c800:0cb5   24df            AND         AL,0xdf                                 
                            LAB_c800_0cb7:                ;XREF[2,0]:   c800:0caf,c800:0cb3
ROM:c800:0cb7   368807          MOV         byte ptr SS:[BX],AL                     
ROM:c800:0cba   e8aefa          CALL        write_character_to_screen               ;undefined write_character_to_screen()
ROM:c800:0cbd   4b              DEC         BX                                      
ROM:c800:0cbe   fec9            DEC         CL                                      
ROM:c800:0cc0   ebb3            JMP         LAB_c800_0c75                           
                            ;************************************************************************************************
                            ;*                                           FUNCTION                                           *
                            ;************************************************************************************************
                            ;undefined llformat_func_03()
                                                          ;XREF[3,0]:   c800:0a64,c800:0c06,c800:0c19
ROM:c800:0cc2   52              PUSH        DX                                      
ROM:c800:0cc3   51              PUSH        CX                                      
ROM:c800:0cc4   33c0            XOR         AX,AX                                   
ROM:c800:0cc6   50              PUSH        AX                                      
                            LAB_c800_0cc7:                ;XREF[4,0]:   c800:0cdd,c800:0cf4,c800:0d10,c800:0d35
ROM:c800:0cc7   e811fb          CALL        get_keystroke_with_wait                 ;undefined get_keystroke_with_wait()
ROM:c800:0cca   3c0d            CMP         AL,0xd                                  
ROM:c800:0ccc   7517            JNZ         LAB_c800_0ce5                           
ROM:c800:0cce   58              POP         AX                                      
ROM:c800:0ccf   5a              POP         DX                                      
ROM:c800:0cd0   52              PUSH        DX                                      
ROM:c800:0cd1   3ad1            CMP         DL,CL                                   
ROM:c800:0cd3   770d            JA          LAB_c800_0ce2                           
ROM:c800:0cd5   0af6            OR          DH,DH                                   
ROM:c800:0cd7   7506            JNZ         LAB_c800_0cdf                           
ROM:c800:0cd9   50              PUSH        AX                                      
ROM:c800:0cda   e8b500          CALL        write_bel                               ;undefined write_bel()
ROM:c800:0cdd   ebe8            JMP         LAB_c800_0cc7                           
                            LAB_c800_0cdf:                ;XREF[1,0]:   c800:0cd7
ROM:c800:0cdf   b80d00          MOV         AX,0xd                                  
                            LAB_c800_0ce2:                ;XREF[1,0]:   c800:0cd3
ROM:c800:0ce2   59              POP         CX                                      
ROM:c800:0ce3   5a              POP         DX                                      
ROM:c800:0ce4   c3              RET                                                  
                            LAB_c800_0ce5:                ;XREF[1,0]:   c800:0ccc
ROM:c800:0ce5   3c08            CMP         AL,0x8                                  
ROM:c800:0ce7   7529            JNZ         LAB_c800_0d12                           
ROM:c800:0ce9   58              POP         AX                                      
ROM:c800:0cea   5a              POP         DX                                      
ROM:c800:0ceb   52              PUSH        DX                                      
ROM:c800:0cec   50              PUSH        AX                                      
ROM:c800:0ced   3ad1            CMP         DL,CL                                   
ROM:c800:0cef   7705            JA          LAB_c800_0cf6                           
                            LAB_c800_0cf1:                ;XREF[3,0]:   c800:0d14,c800:0d18,c800:0d1d
ROM:c800:0cf1   e89e00          CALL        write_bel                               ;undefined write_bel()
ROM:c800:0cf4   ebd1            JMP         LAB_c800_0cc7                           
                            LAB_c800_0cf6:                ;XREF[1,0]:   c800:0cef
ROM:c800:0cf6   58              POP         AX                                      
ROM:c800:0cf7   33d2            XOR         DX,DX                                   
ROM:c800:0cf9   bb0a00          MOV         BX,0xa                                  
ROM:c800:0cfc   f7f3            DIV         BX                                      
ROM:c800:0cfe   50              PUSH        AX                                      
ROM:c800:0cff   fec1            INC         CL                                      
ROM:c800:0d01   b008            MOV         AL,0x8                                  
ROM:c800:0d03   e865fa          CALL        write_character_to_screen               ;undefined write_character_to_screen()
ROM:c800:0d06   b020            MOV         AL,0x20                                 
ROM:c800:0d08   e860fa          CALL        write_character_to_screen               ;undefined write_character_to_screen()
ROM:c800:0d0b   b008            MOV         AL,0x8                                  
ROM:c800:0d0d   e85bfa          CALL        write_character_to_screen               ;undefined write_character_to_screen()
ROM:c800:0d10   ebb5            JMP         LAB_c800_0cc7                           
                            LAB_c800_0d12:                ;XREF[1,0]:   c800:0ce7
ROM:c800:0d12   3c30            CMP         AL,0x30                                 
ROM:c800:0d14   72db            JC          LAB_c800_0cf1                           
ROM:c800:0d16   3c39            CMP         AL,0x39                                 
ROM:c800:0d18   77d7            JA          LAB_c800_0cf1                           
ROM:c800:0d1a   80f900          CMP         CL,0x0                                  
ROM:c800:0d1d   74d2            JZ          LAB_c800_0cf1                           
ROM:c800:0d1f   fec9            DEC         CL                                      
ROM:c800:0d21   e847fa          CALL        write_character_to_screen               ;undefined write_character_to_screen()
ROM:c800:0d24   2c30            SUB         AL,0x30                                 
ROM:c800:0d26   8ad8            MOV         BL,AL                                   
ROM:c800:0d28   58              POP         AX                                      
ROM:c800:0d29   53              PUSH        BX                                      
ROM:c800:0d2a   bb0a00          MOV         BX,0xa                                  
ROM:c800:0d2d   f7e3            MUL         BX                                      
ROM:c800:0d2f   5b              POP         BX                                      
ROM:c800:0d30   32ff            XOR         BH,BH                                   
ROM:c800:0d32   03c3            ADD         AX,BX                                   
ROM:c800:0d34   50              PUSH        AX                                      
ROM:c800:0d35   eb90            JMP         LAB_c800_0cc7                           
                            ;************************************************************************************************
                            ;*                                           FUNCTION                                           *
                            ;************************************************************************************************
                            ;undefined write_horizontal_separator_line_to_screen()
                                                          ;XREF[2,0]:   c800:0a03,c800:0a09
ROM:c800:0d37   b402            MOV         AH,0x2                                  
ROM:c800:0d39   b700            MOV         BH,0x0                                  
ROM:c800:0d3b   55              PUSH        BP                                      
ROM:c800:0d3c   cd10            INT         0x10                                    ;Set cursor to DH,DL passed into func...
ROM:c800:0d3e   5d              POP         BP                                      
ROM:c800:0d3f   b94600          MOV         CX,0x46                                 
                            loop_write_separator_char:    ;XREF[1,0]:   c800:0d47
ROM:c800:0d42   b0c4            MOV         AL,0xc4                                 ;C4 = horizontal separator
ROM:c800:0d44   e824fa          CALL        write_character_to_screen               ;undefined write_character_to_screen()
ROM:c800:0d47   e2f9            LOOP        loop_write_separator_char               
ROM:c800:0d49   b00d            MOV         AL,0xd                                  
ROM:c800:0d4b   e81dfa          CALL        write_character_to_screen               ;undefined write_character_to_screen()
ROM:c800:0d4e   b00a            MOV         AL,0xa                                  
ROM:c800:0d50   e818fa          CALL        write_character_to_screen               ;undefined write_character_to_screen()
ROM:c800:0d53   c3              RET                                                  
                            ;************************************************************************************************
                            ;*                                           FUNCTION                                           *
                            ;************************************************************************************************
                            ;undefined llformat_func_04()
                                                          ;XREF[3,0]:   c800:0a58,c800:0c25,c800:0c30
ROM:c800:0d54   52              PUSH        DX                                      
ROM:c800:0d55   50              PUSH        AX                                      
ROM:c800:0d56   e80ef8          CALL        display_string_with_coords              ;undefined display_string_with_coords()
ROM:c800:0d59   58              POP         AX                                      
ROM:c800:0d5a   e81bfa          CALL        write_decimal_number_to_screen          ;undefined write_decimal_number_to_sc...
ROM:c800:0d5d   5a              POP         DX                                      
ROM:c800:0d5e   c3              RET                                                  
                            ;************************************************************************************************
                            ;*                                           FUNCTION                                           *
                            ;************************************************************************************************
                            ;undefined llformat_func_00()
                                                          ;XREF[9,0]:   c800:0a12,c800:0a4e,c800:0a7b,c800:0a8c
                                                          ;             c800:0a9a,c800:0abd,c800:0ad6,c800:0bf4
                                                          ;             c800:0c62
ROM:c800:0d5f   ba0008          MOV         DX,0x800                                
ROM:c800:0d62   b402            MOV         AH,0x2                                  
ROM:c800:0d64   b700            MOV         BH,0x0                                  
ROM:c800:0d66   55              PUSH        BP                                      
ROM:c800:0d67   cd10            INT         0x10                                    
ROM:c800:0d69   5d              POP         BP                                      
ROM:c800:0d6a   b80006          MOV         AX,0x600                                
ROM:c800:0d6d   b707            MOV         BH,0x7                                  
ROM:c800:0d6f   b90008          MOV         CX,0x800                                
ROM:c800:0d72   ba4f15          MOV         DX,0x154f                               
ROM:c800:0d75   b00d            MOV         AL,0xd                                  
ROM:c800:0d77   55              PUSH        BP                                      
ROM:c800:0d78   cd10            INT         0x10                                    
ROM:c800:0d7a   5d              POP         BP                                      
                            ;************************************************************************************************
                            ;*                                           FUNCTION                                           *
                            ;************************************************************************************************
                            ;undefined llformat_func_05()
                                                          ;XREF[1,0]:   c800:0a75
ROM:c800:0d7b   53              PUSH        BX                                      
ROM:c800:0d7c   51              PUSH        CX                                      
ROM:c800:0d7d   b700            MOV         BH,0x0                                  
ROM:c800:0d7f   b402            MOV         AH,0x2                                  
ROM:c800:0d81   55              PUSH        BP                                      
ROM:c800:0d82   cd10            INT         0x10                                    
ROM:c800:0d84   5d              POP         BP                                      
ROM:c800:0d85   b94f00          MOV         CX,0x4f                                 
ROM:c800:0d88   b020            MOV         AL,0x20                                 
                            LAB_c800_0d8a:                ;XREF[1,0]:   c800:0d8d
ROM:c800:0d8a   e8def9          CALL        write_character_to_screen               ;undefined write_character_to_screen()
ROM:c800:0d8d   e2fb            LOOP        LAB_c800_0d8a                           
ROM:c800:0d8f   59              POP         CX                                      
ROM:c800:0d90   5b              POP         BX                                      
ROM:c800:0d91   c3              RET                                                  
                            ;************************************************************************************************
                            ;*                                           FUNCTION                                           *
                            ;************************************************************************************************
                            ;undefined write_bel()
                                                          ;XREF[7,0]:   c800:0073,c800:0089,c800:0a6f,c800:0c89
                                                          ;             c800:0ca8,c800:0cda,c800:0cf1
ROM:c800:0d92   b007            MOV         AL,0x7                                  
ROM:c800:0d94   e8d4f9          CALL        write_character_to_screen               ;undefined write_character_to_screen()
ROM:c800:0d97   c3              RET                                                  
                            ;************************************************************************************************
                            ;*                                           FUNCTION                                           *
                            ;************************************************************************************************
                            ;undefined llformat_func_06()
                                                          ;XREF[1,0]:   c800:0aa3
ROM:c800:0d98   06              PUSH        ES                                      
ROM:c800:0d99   52              PUSH        DX                                      
ROM:c800:0d9a   53              PUSH        BX                                      
ROM:c800:0d9b   8a5603          MOV         DL,byte ptr [BP + 0x3]                  
ROM:c800:0d9e   80ca80          OR          DL,0x80                                 
ROM:c800:0da1   a1fe01          MOV         AX,[0x1fe]                              
ROM:c800:0da4   50              PUSH        AX                                      
ROM:c800:0da5   c706fe016c6c    MOV         word ptr [0x1fe],0x6c6c                 
ROM:c800:0dab   33db            XOR         BX,BX                                   
ROM:c800:0dad   8ec3            MOV         ES,BX                                   
ROM:c800:0daf   b40f            MOV         AH,0xf                                  
ROM:c800:0db1   cd13            INT         0x13                                    ;DOS write sector sector buffer
ROM:c800:0db3   58              POP         AX                                      
ROM:c800:0db4   a3fe01          MOV         [0x1fe],AX                              
ROM:c800:0db7   5b              POP         BX                                      
ROM:c800:0db8   5a              POP         DX                                      
ROM:c800:0db9   07              POP         ES                                      
ROM:c800:0dba   c3              RET                                                  
                            string_no_drives_found:       ;XREF[1,0]:   c800:006b
ROM:c800:0dbb   2c              ??          2Ch    ,                                
ROM:c800:0dbc   0d0a4e6f2...    ds          "\r\nNo drives found.                ...
                            string_one_drive_found:       ;XREF[1,0]:   c800:007f
ROM:c800:0de8   2d              ??          2Dh    -                                
ROM:c800:0de9   0d0a4f6e6...    ds          "\r\nOne drive found.                ...
                            string_two_drives_found:      ;XREF[1,0]:   c800:0086
ROM:c800:0e16   2d              ??          2Dh    -                                
ROM:c800:0e17   0d0a54776...    ds          "\r\nTwo drives found.               ...
                            string_invalid_bios_entry:    ;XREF[1,0]:   c800:07f0
ROM:c800:0e44   17              ??          17h                                     
ROM:c800:0e45   0d0a494e5...    ds          "\r\nINVALID BIOS ENTRY.\r\n"           
                            string_reboot_system_prompt:  ;XREF[1,0]:   c800:07f6
ROM:c800:0e5c   25              ??          25h    %                                
ROM:c800:0e5d   0d0a50726...    ds          "\r\nPress any key to reboot the syst...
                            string_disk_boot_failure:     ;XREF[1,0]:   c800:04f9
ROM:c800:0e82   2d              ??          2Dh    -                                
ROM:c800:0e83   0d0a44697...    ds          "\r\nDisk Boot Failure - press any ke...
ROM:c800:0eb0   03              ??          03h                                     
ROM:c800:0eb1   0d              ??          0Dh                                     
ROM:c800:0eb2   0a              ??          0Ah                                     
ROM:c800:0eb3   ba              ??          BAh                                     
                            string_product_name:          ;XREF[1,0]:   c800:0a0c
ROM:c800:0eb4   0f              ??          0Fh                                     
ROM:c800:0eb5   01              ??          01h                                     
ROM:c800:0eb6   2f              ??          2Fh    /                                
ROM:c800:0eb7   534541474...    ds          "SEAGATE Hard Disc Initialization Uti...
                            string_select_drive_prompt:   
ROM:c800:0ee6   10              ??          10h                                     
ROM:c800:0ee7   09              ??          09h                                     
ROM:c800:0ee8   2f              ??          2Fh    /                                
ROM:c800:0ee9   446f20796...    ds          "Do you want to initialize Drive 0 or...
                            string_drive:                 ;XREF[1,0]:   c800:0a26
ROM:c800:0f18   10              ??          10h                                     
ROM:c800:0f19   0a              ??          0Ah                                     
ROM:c800:0f1a   06              ??          06h                                     
ROM:c800:0f1b   447269766520    ds          "Drive "                                
                            string_not_ready_or_present:  ;XREF[1,0]:   c800:0a32
ROM:c800:0f21   18              ??          18h                                     
ROM:c800:0f22   0a              ??          0Ah                                     
ROM:c800:0f23   20              ??          20h                                     
ROM:c800:0f24   6973206e6...    ds          "is not ready, or is not present "      
                            string_interleave_prompt:     ;XREF[1,0]:   c800:0a5b
ROM:c800:0f44   14              ??          14h                                     
ROM:c800:0f45   0c              ??          0Ch                                     
ROM:c800:0f46   23506c656...    ds          "#Please enter interleave factor ->  "  
                            string_optimum_interleave_m...
ROM:c800:0f6a   14              ??          14h                                     
ROM:c800:0f6b   0f              ??          0Fh                                     
ROM:c800:0f6c   4d              ??          4Dh    M                                
ROM:c800:0f6d   4e6f74652...    ds          "Note : The optimum interleave for\r\...
                            string_do_you_want_to_abort:  
ROM:c800:0fba   0f              ??          0Fh                                     
ROM:c800:0fbb   12              ??          12h                                     
ROM:c800:0fbc   38              ??          38h    8                                
ROM:c800:0fbd   446f20796...    ds          "Do you want to abort the initializat...
                            string_formatting_drive:      ;XREF[1,0]:   c800:0a9d
ROM:c800:0ff5   14              ??          14h                                     
ROM:c800:0ff6   14              ??          14h                                     
ROM:c800:0ff7   25              ??          25h    %                                
ROM:c800:0ff8   466f726d6...    ds          "Formatting drive ......  Please wait " 
                            string_are_you_sure_prompt_...;XREF[1,0]:   c800:0a7e
ROM:c800:101d   11              ??          11h                                     
ROM:c800:101e   0a              ??          0Ah                                     
ROM:c800:101f   36              ??          36h    6                                
ROM:c800:1020   5761726e6...    ds          "Warning : Formatting the drive will ...
                            string_are_you_sure_prompt_...
ROM:c800:1056   11              ??          11h                                     
ROM:c800:1057   0b              ??          0Bh                                     
ROM:c800:1058   34              ??          34h    4                                
ROM:c800:1059   647269766...    ds          "drive to be erased. Do you want to c...
                            string_verifying_cyl_head:    ;XREF[1,0]:   c800:0b02
ROM:c800:108d   14              ??          14h                                     
ROM:c800:108e   14              ??          14h                                     
ROM:c800:108f   24              ??          24h    $                                
ROM:c800:1090   566572696...    ds          "Verifying :    Cyl        Head      "  
                            string_failed_to_format_bad...;XREF[1,0]:   c800:0b6c
ROM:c800:10b4   19              ??          19h                                     
ROM:c800:10b5   0b              ??          0Bh                                     
ROM:c800:10b6   21              ??          21h    !                                
ROM:c800:10b7   4661696c6...    ds          "Failed to format a bad track \r\n\r\n" 
                            string_can_not_read_drive_p...;XREF[1,0]:   c800:0ad9
ROM:c800:10d8   19              ??          19h                                     
ROM:c800:10d9   0b              ??          0Bh                                     
ROM:c800:10da   22              ??          22h    "                                
ROM:c800:10db   43616e206...    ds          "Can not read drive parameters \r\n\r\n"
                            string_failed_to_format_drive:;XREF[1,0]:   c800:0ac0
ROM:c800:10fd   19              ??          19h                                     
ROM:c800:10fe   0b              ??          0Bh                                     
ROM:c800:10ff   1f              ??          1Fh                                     
ROM:c800:1100   4661696c6...    ds          "Failed to format the drive \r\n\r\n"   
                            string_failed_to_format_bad...;XREF[1,0]:   c800:0c59
ROM:c800:111f   19              ??          19h                                     
ROM:c800:1120   0b              ??          0Bh                                     
ROM:c800:1121   21              ??          21h    !                                
ROM:c800:1122   4661696c6...    ds          "Failed to format a bad track \r\n\r\n" 
                            string_too_many_bad_tracks:   ;XREF[1,0]:   c800:0b7e
ROM:c800:1143   19              ??          19h                                     
ROM:c800:1144   0b              ??          0Bh                                     
ROM:c800:1145   18              ??          18h                                     
ROM:c800:1146   546f6f206...    ds          "Too many bad tracks \r\n\r\n"          
                            string_enter_defect_cyl_pro...;XREF[1,0]:   c800:0bf7
ROM:c800:115e   10              ??          10h                                     
ROM:c800:115f   0a              ??          0Ah                                     
ROM:c800:1160   26              ??          26h    &                                
ROM:c800:1161   456e74657...    ds          "Enter the cylinder number of a defect,"
                            string_or_press_enter_to_end: ;XREF[1,0]:   c800:0bfd
ROM:c800:1187   12              ??          12h                                     
ROM:c800:1188   0b              ??          0Bh                                     
ROM:c800:1189   16              ??          16h                                     
ROM:c800:118a   6f7220707...    ds          "or press ENTER to end "                
                            string_enter_defect_head_pr...;XREF[1,0]:   c800:0c10
ROM:c800:11a0   10              ??          10h                                     
ROM:c800:11a1   0c              ??          0Ch                                     
ROM:c800:11a2   24              ??          24h    $                                
ROM:c800:11a3   456e74657...    ds          "Enter the head number of the defect "  
                            string_the_defect_is_at_cyl...
ROM:c800:11c7   10              ??          10h                                     
ROM:c800:11c8   0d              ??          0Dh                                     
ROM:c800:11c9   1b              ??          1Bh                                     
ROM:c800:11ca   546865206...    ds          "The defect is at cylinder  "           
                            string_head:                  
ROM:c800:11e5   2f              ??          2Fh    /                                
ROM:c800:11e6   0d              ??          0Dh                                     
ROM:c800:11e7   05              ??          05h                                     
ROM:c800:11e8   6865616420      ds          "head "                                 
                            string_is_this_correct:       
ROM:c800:11ed   14              ??          14h                                     
ROM:c800:11ee   0e              ??          0Eh                                     
ROM:c800:11ef   18              ??          18h                                     
ROM:c800:11f0   497320746...    ds          "Is this correct ? (Y/N) "              
                            string_after_reboot_message:  ;XREF[1,0]:   c800:0c65
ROM:c800:1208   11              ??          11h                                     
ROM:c800:1209   0c              ??          0Ch                                     
ROM:c800:120a   6b              ??          6Bh    k                                
ROM:c800:120b   416674657...    ds          "After system boots, run the FDISK an...
                            string_insert_boot_floppy_p...;XREF[1,0]:   c800:0c6b
ROM:c800:1276   07              ??          07h                                     
ROM:c800:1277   17              ??          17h                                     
ROM:c800:1278   41              ??          41h    A                                
ROM:c800:1279   496e73657...    ds          "Insert a bootable DOS diskette in dr...
                            string_reboot_prompt:         
ROM:c800:12ba   11              ??          11h                                     
ROM:c800:12bb   17              ??          17h                                     
ROM:c800:12bc   21              ??          21h    !                                
ROM:c800:12bd   507265737...    ds          "Press any key to boot the system "     
                            string_format_complete:       
ROM:c800:12de   19              ??          19h                                     
ROM:c800:12df   09              ??          09h                                     
ROM:c800:12e0   17              ??          17h                                     
ROM:c800:12e1   466f726d6...    ds          "Format complete ...... "               
